(dp1
S'P[1]'
p2
(dp3
S'dist'
p4
S'Uniform'
p5
sS'pars'
p6
S'2.8 3.3'
p7
ssS'P[0]'
p8
(dp9
g4
S'Uniform'
p10
sg6
S'1.8 2.3'
p11
ssS'samples'
p12
I100
sS'Y[0]'
p13
(dp14
g4
S'Uniform'
p15
sg6
S'0 4'
p16
ssS'alpha'
p17
F0,5
sS'Y[1]'
p18
(dp19
g4
S'Uniform'
p20
sg6
S'0 4'
p21
ss.