(dp0
S'priors'
p1
S'uniform(0,200000)\nuniform(0,200000)\nuniform(0,200000)\nuniform(0,20)\nuniform(0,15)\nuniform(0,2)\nuniform(0,8)\nuniform(0,2)'
p2
sS'liks'
p3
S''
p4
sS'nruns'
p5
I100
sS'vars'
p6
(lp7
I1
aI1
aI1
aI1
aI1
aI1
aI1
aI1
as.