(dp1
S'b298fc3ca7b09c09522e60564748dea20037cc05'
p2
(F1279286585.7432849
N(dp3
(Vtestticket1
Vtestuser1
p4
tp5
(lp6
S'PMS_PROJECT_ADMIN'
p7
aS'WIKI_VIEW'
p8
aS'WIKI_CREATE'
p9
aS'WIKICOMMENT_CREATE'
p10
aS'XMLRPC_VIEW'
p11
aS'REVIEW_VIEW'
p12
aS'REVIEW_CREATE'
p13
aS'PROJECT_VIEW'
p14
aS'VCS_VIEW'
p15
aS'VCS_CREATE'
p16
aS'TICKET_VIEW'
p17
aS'TICKET_CREATE'
p18
aS'TICKET_STATUS_CREATE'
p19
aS'TICKET_COMMENT_CREATE'
p20
as(Vtreebeard
Vinabd
tp21
(lp22
g7
ag8
ag9
ag10
ag11
ag12
ag13
ag14
ag15
ag16
ag17
ag18
ag19
ag20
as(Vgreyhame
Vzankhanaav
tp23
(lp24
g7
ag8
ag9
ag10
ag11
ag12
ag13
ag14
ag15
ag16
ag17
ag18
ag19
ag20
as(Vtestreview1
g4
tp25
(lp26
g7
ag8
ag9
ag10
ag11
ag12
ag13
ag14
ag15
ag16
ag17
ag18
ag19
ag20
as(Vdernhelm
Vchakradhardt
tp27
(lp28
g7
ag8
ag9
ag10
ag11
ag12
ag13
ag14
ag15
ag16
ag17
ag18
ag19
ag20
as(Vzwikitestproj
g4
tp29
(lp30
g7
ag8
ag9
ag10
ag11
ag12
ag13
ag14
ag15
ag16
ag17
ag18
ag19
ag20
as(Vlockbearer
Vabhilashaar
tp31
(lp32
g7
ag8
ag9
ag10
ag11
ag12
ag13
ag14
ag15
ag16
ag17
ag18
ag19
ag20
as(Vdenethor
Vhanumanag
p33
tp34
(lp35
g7
ag8
ag9
ag10
ag11
ag12
ag13
ag14
ag15
ag16
ag17
ag18
ag19
ag20
as(Vlegolas
Vbalachandranbh
tp36
(lp37
g7
ag8
ag9
ag10
ag11
ag12
ag13
ag14
ag15
ag16
ag17
ag18
ag19
ag20
as(Vdwalin
Vadmin
tp38
(lp39
g7
ag8
ag9
ag10
ag11
ag12
ag13
ag14
ag15
ag16
ag17
ag18
ag19
ag20
as(Vtestproject1
g4
tp40
(lp41
g7
ag8
ag9
ag10
ag11
ag12
ag13
ag14
ag15
ag16
ag17
ag18
ag19
ag20
as(Vtestvcs1
g4
tp42
(lp43
g7
ag8
ag9
ag10
ag11
ag12
ag13
ag14
ag15
ag16
ag17
ag18
ag19
ag20
as(Velendil
Vqamarmi
tp44
(lp45
g7
ag8
ag9
ag10
ag11
ag12
ag13
ag14
ag15
ag16
ag17
ag18
ag19
ag20
as(Vorald
g33
tp46
(lp47
g7
ag8
ag9
ag10
ag11
ag12
ag13
ag14
ag15
ag16
ag17
ag18
ag19
ag20
astp48
sS'ba459b888fadbae3e0f052245ea87bc78f1d7acc'
p49
(F1279286710.1083641
N(dp50
(Vtestticket1
p51
Vdeveloper
p52
tp53
(lp54
S'TICKET_COMMENT_CREATE'
p55
aS'TICKET_CREATE'
p56
aS'TICKET_STATUS_CREATE'
p57
aS'TICKET_VIEW'
p58
aS'PROJECT_VIEW'
p59
as(Vlegolas
p60
Vnon-members
p61
tp62
(lp63
s(Vtestreview1
p64
Vowner
p65
tp66
(lp67
g59
aS'REVIEW_VIEW'
p68
as(Vzwikitestproj
p69
Vmember
p70
tp71
(lp72
S'WIKICOMMENT_CREATE'
p73
aS'WIKI_VIEW'
p74
ag59
as(Vdernhelm
p75
g61
tp76
(lp77
s(Vgreyhame
p78
g52
tp79
(lp80
g57
ag59
ag74
ag56
aS'VCS_CREATE'
p81
aS'WIKI_CREATE'
p82
aS'REVIEW_CREATE'
p83
ag55
ag56
as(g69
g52
tp84
(lp85
g73
ag82
ag74
ag59
ag73
ag82
ag74
as(g75
g70
tp86
(lp87
S'XMLRPC_VIEW'
p88
ag73
ag59
ag83
ag56
aS'VCS_VIEW'
p89
as(Vorald
p90
g52
tp91
(lp92
g88
ag81
ag59
ag68
ag89
ag56
ag57
as(Vtreebeard
p93
g61
tp94
(lp95
s(Vtestproject1
p96
g70
tp97
(lp98
g59
as(g93
g70
tp99
(lp100
g88
ag56
ag81
ag59
ag82
ag89
ag56
as(g51
g65
tp101
(lp102
g59
as(g96
g61
tp103
(lp104
s(Velendil
p105
g52
tp106
(lp107
g74
ag59
ag82
ag68
ag83
ag89
as(g60
g70
tp108
(lp109
g73
ag68
ag74
ag59
ag82
ag58
ag83
ag56
ag89
ag56
as(g78
g65
tp110
(lp111
g88
ag74
ag56
ag82
ag81
ag59
ag83
as(Vlockbearer
p112
g61
tp113
(lp114
s(g105
g61
tp115
(lp116
s(Vdenethor
p117
g61
tp118
(lp119
s(Vtestvcs1
p120
g52
tp121
(lp122
g59
ag81
ag89
as(g117
g65
tp123
(lp124
g73
ag56
ag74
ag55
ag81
ag68
ag59
ag89
ag56
as(g64
g52
tp125
(lp126
g59
ag83
ag68
as(g120
g70
tp127
(lp128
g59
ag89
as(g60
g65
tp129
(lp130
g81
ag58
ag82
ag68
ag83
ag89
ag56
as(g112
g70
tp131
(lp132
g73
ag81
ag56
ag59
ag89
ag57
as(g60
g52
tp133
(lp134
g74
ag57
ag82
ag58
ag68
ag56
ag56
as(g105
g70
tp135
(lp136
g83
ag74
ag56
ag82
ag81
ag58
ag57
as(g112
g52
tp137
(lp138
g88
ag57
ag68
ag73
ag83
ag89
as(Vdwalin
p139
g65
tp140
(lp141
g88
ag73
ag81
ag55
ag82
ag68
ag59
ag83
ag89
ag57
as(g90
g65
tp142
(lp143
g88
ag73
ag68
ag56
ag83
ag55
ag57
as(g105
g65
tp144
(lp145
g73
ag59
ag68
ag55
ag56
ag89
ag56
ag57
as(g64
g70
tp146
(lp147
g59
ag68
as(g75
g65
tp148
(lp149
g88
ag81
ag58
ag59
ag83
ag55
ag56
ag56
ag57
as(g93
g65
tp150
(lp151
g58
ag81
ag82
ag59
ag68
ag89
ag57
as(g51
g70
tp152
(lp153
g58
ag59
as(g96
g52
tp154
(lp155
g59
as(g51
g61
tp156
(lp157
s(g64
g61
tp158
(lp159
s(g96
g65
tp160
(lp161
g59
as(g93
g52
tp162
(lp163
g88
ag56
ag55
ag58
ag68
ag89
ag56
as(g117
g52
tp164
(lp165
g88
ag73
ag74
ag56
ag82
ag58
ag83
ag89
ag56
ag57
as(g139
g52
tp166
(lp167
g88
ag56
ag74
ag82
ag68
ag59
ag55
ag57
as(g90
g61
tp168
(lp169
s(g75
g52
tp170
(lp171
g88
ag73
ag56
ag74
ag82
ag81
ag58
ag59
ag55
ag56
as(g78
g70
tp172
(lp173
g73
ag56
ag74
ag57
ag58
ag81
ag59
ag82
ag83
ag56
as(g120
g61
tp174
(lp175
s(g120
g65
tp176
(lp177
g59
as(g112
g65
tp178
(lp179
g74
ag81
ag82
ag83
ag56
as(g139
g70
tp180
(lp181
g88
ag74
ag58
ag82
ag81
ag59
ag83
ag89
ag56
ag57
as(g117
g70
tp182
(lp183
g73
ag57
ag81
ag74
ag56
ag82
ag83
ag55
ag56
as(g139
g61
tp184
(lp185
s(g90
g70
tp186
(lp187
g73
ag68
ag74
ag58
ag81
ag59
ag83
ag55
ag57
as(g78
g61
tp188
(lp189
s(g69
g61
tp190
(lp191
s(g69
g65
tp192
(lp193
g59
ag74
astp194
s.