ccopy_reg
_reconstructor
p0
(cpyling.chunker
TagChunker
p1
c__builtin__
object
p2
Ntp3
Rp4
(dp5
S'_chunk_tagger'
p6
g0
(cnltk.tag.sequential
BigramTagger
p7
g2
Ntp8
Rp9
(dp10
S'_taggers'
p11
(lp12
g9
ag0
(cnltk.tag.sequential
UnigramTagger
p13
g2
Ntp14
Rp15
(dp16
g11
(lp17
g15
asS'_n'
p18
I1
sS'_context_to_tag'
p19
(dp20
S'PRP$'
p21
S'B-NP'
p22
sS'VBG'
p23
S'O'
p24
sS'FW'
p25
S'B-NP'
p26
sS'IN'
p27
g24
sS'VBN'
p28
g24
sS','
p29
g24
sS"''"
p30
g24
sS'VBP'
p31
g24
sS'WDT'
p32
S'B-NP'
p33
sS'JJ'
p34
S'I-NP'
p35
sS'WP'
p36
S'B-NP'
p37
sS'VBZ'
p38
g24
sS'DT'
p39
S'B-NP'
p40
sS'#'
p41
S'B-NP'
p42
sS'RP'
p43
g24
sS'$'
p44
S'B-NP'
p45
sS'NN'
p46
S'I-NP'
p47
sS')'
p48
g24
sS'('
p49
g24
sS'VBD'
p50
g24
sS'POS'
p51
S'I-NP'
p52
sS'.'
p53
g24
sS'TO'
p54
g24
sS'PRP'
p55
S'B-NP'
p56
sS'RB'
p57
g24
sS':'
p58
g24
sS'NNS'
p59
S'I-NP'
p60
sS'NNP'
p61
S'I-NP'
p62
sS'``'
p63
g24
sS'WRB'
p64
g24
sS'CC'
p65
g24
sS'LS'
p66
S'B-NP'
p67
sS'PDT'
p68
S'B-NP'
p69
sS'RBS'
p70
S'I-NP'
p71
sS'RBR'
p72
g24
sS'CD'
p73
S'I-NP'
p74
sS'EX'
p75
S'B-NP'
p76
sS'VBG|NN'
p77
S'B-NP'
p78
sS'WP$'
p79
S'B-NP'
p80
sS'MD'
p81
g24
sS'NNPS'
p82
S'I-NP'
p83
sS'JJS'
p84
S'I-NP'
p85
sS'JJR'
p86
g24
sS'SYM'
p87
g24
sS'VB'
p88
g24
sS'UH'
p89
g24
ssbasg18
I2
sg19
(dp90
((tS'VBD'
p91
tp92
g24
s((S'B-NP'
p93
tp94
S'IN'
p95
tp96
g24
s((S'I-NP'
p97
tp98
S'RB'
p99
tp100
g24
s((S'B-NP'
p101
tp102
S'JJR'
p103
tp104
S'I-NP'
p105
s((tg61
tp106
S'B-NP'
p107
s((S'B-NP'
p108
tp109
S'JJ'
p110
tp111
g35
s((S'I-NP'
p112
tp113
S'VB'
p114
tp115
g24
s((S'I-NP'
p116
tp117
S'JJS'
p118
tp119
S'I-NP'
p120
s((tS'NNPS'
p121
tp122
S'B-NP'
p123
s((S'B-NP'
p124
tp125
S'VBG'
p126
tp127
g24
s((S'I-NP'
p128
tp129
S'PRP'
p130
tp131
S'B-NP'
p132
s((g24
tp133
S'NN'
p134
tp135
S'B-NP'
p136
s((S'B-NP'
p137
tp138
S'EX'
p139
tp140
S'B-NP'
p141
s((tS"''"
p142
tp143
g24
s((S'I-NP'
p144
tp145
S'FW'
p146
tp147
g24
s((tS'VBN'
p148
tp149
g24
s((S'I-NP'
p150
tp151
S'RBS'
p152
tp153
S'I-NP'
p154
s((g24
tp155
g82
tp156
S'B-NP'
p157
s((S'I-NP'
p158
tp159
S'NNP'
p160
tp161
S'I-NP'
p162
s((tS'DT'
p163
tp164
S'B-NP'
p165
s((S'I-NP'
p166
tp167
S'$'
p168
tp169
S'I-NP'
p170
s((tS'VB'
p171
tp172
g24
s((g24
tp173
S'('
p174
tp175
g24
s((g24
tp176
S'RP'
p177
tp178
g24
s((S'I-NP'
p179
tp180
S'WDT'
p181
tp182
S'B-NP'
p183
s((tS'LS'
p184
tp185
S'B-NP'
p186
s((g24
tp187
S'VB'
p188
tp189
g24
s((S'B-NP'
p190
tp191
S'NN'
p192
tp193
g47
s((tS':'
p194
tp195
g24
s((g24
tp196
S'JJ'
p197
tp198
S'B-NP'
p199
s((g24
tp200
S'JJR'
p201
tp202
S'B-NP'
p203
s((g24
tp204
S'DT'
p205
tp206
g40
s((g24
tp207
S'POS'
p208
tp209
S'B-NP'
p210
s((tS'JJ'
p211
tp212
S'B-NP'
p213
s((S'B-NP'
p214
tp215
S'VB'
p216
tp217
g24
s((S'B-NP'
p218
tp219
S'WP'
p220
tp221
S'B-NP'
p222
s((S'B-NP'
p223
tp224
S'PDT'
p225
tp226
S'I-NP'
p227
s((tS'JJR'
p228
tp229
S'B-NP'
p230
s((S'B-NP'
p231
tp232
S'POS'
p233
tp234
g52
s((S'I-NP'
p235
tp236
S'('
p237
tp238
g24
s((S'B-NP'
p239
tp240
S'VBD'
p241
tp242
g24
s((S'I-NP'
p243
tp244
S':'
p245
tp246
g24
s((g24
tp247
S','
p248
tp249
g24
s((g24
tp250
S':'
p251
tp252
g24
s((tS'NN'
p253
tp254
S'B-NP'
p255
s((S'I-NP'
p256
tp257
S'POS'
p258
tp259
S'I-NP'
p260
s((S'I-NP'
p261
tp262
S'RP'
p263
tp264
g24
s((g24
tp265
S'RB'
p266
tp267
g24
s((tS'VBZ'
p268
tp269
g24
s((g24
tp270
S'``'
p271
tp272
g24
s((g24
tp273
S'VBZ'
p274
tp275
g24
s((S'I-NP'
p276
tp277
S'WP'
p278
tp279
g37
s((g24
tp280
S'VBG'
p281
tp282
g24
s((g24
tp283
g73
tp284
S'B-NP'
p285
s((S'B-NP'
p286
tp287
S'DT'
p288
tp289
S'B-NP'
p290
s((S'I-NP'
p291
tp292
g79
tp293
S'I-NP'
p294
s((g24
tp295
S'#'
p296
tp297
g42
s((g24
tp298
S"''"
p299
tp300
g24
s((S'B-NP'
p301
tp302
S'MD'
p303
tp304
g24
s((g24
tp305
S'VBD'
p306
tp307
g24
s((S'B-NP'
p308
tp309
S'CD'
p310
tp311
g158
s((S'I-NP'
p312
tp313
S'NN'
p314
tp315
S'I-NP'
p316
s((S'I-NP'
p317
tp318
S'TO'
p319
tp320
g24
s((g24
tp321
S'JJS'
p322
tp323
S'B-NP'
p324
s((S'I-NP'
p325
tp326
S'VBZ'
p327
tp328
g24
s((S'B-NP'
p329
tp330
S'NNP'
p331
tp332
g62
s((S'I-NP'
p333
tp334
S'VBD'
p335
tp336
g24
s((S'B-NP'
p337
tp338
S'VBP'
p339
tp340
g24
s((S'I-NP'
p341
tp342
S'CC'
p343
tp344
g24
s((S'B-NP'
p345
tp346
S'RBS'
p347
tp348
g71
s((g24
tp349
S'NNS'
p350
tp351
S'B-NP'
p352
s((g24
tp353
S'CC'
p354
tp355
g24
s((S'B-NP'
p356
tp357
S'WDT'
p358
tp359
g33
s((tS'VBG'
p360
tp361
g24
s((S'B-NP'
p362
tp363
S'CC'
p364
tp365
g24
s((S'I-NP'
p366
tp367
S'PRP$'
p368
tp369
S'I-NP'
p370
s((tS'JJS'
p371
tp372
g24
s((S'B-NP'
p373
tp374
S"''"
p375
tp376
g24
s((S'B-NP'
p377
tp378
S'$'
p379
tp380
S'I-NP'
p381
s((tS'RBS'
p382
tp383
g24
s((S'B-NP'
p384
tp385
S'VBZ'
p386
tp387
g24
s((S'B-NP'
p388
tp389
S'JJS'
p390
tp391
g85
s((tS'NNS'
p392
tp393
S'B-NP'
p394
s((g24
tp395
S'VBP'
p396
tp397
g24
s((S'I-NP'
p398
tp399
S"''"
p400
tp401
g24
s((S'B-NP'
p402
tp403
S'PRP$'
p404
tp405
S'I-NP'
p406
s((g24
tp407
S'PDT'
p408
tp409
g69
s((S'I-NP'
p410
tp411
S'.'
p412
tp413
g24
s((g24
tp414
S'VBN'
p415
tp416
g24
s((S'I-NP'
p417
tp418
S'JJR'
p419
tp420
g24
s((g24
tp421
S'NNP'
p422
tp423
S'B-NP'
p424
s((S'B-NP'
p425
tp426
S'WP$'
p427
tp428
S'B-NP'
p429
s((S'I-NP'
p430
tp431
S'VBP'
p432
tp433
g24
s((S'B-NP'
p434
tp435
S'PRP'
p436
tp437
S'B-NP'
p438
s((S'B-NP'
p439
tp440
g25
tp441
S'I-NP'
p442
s((S'I-NP'
p443
tp444
S'DT'
p445
tp446
S'B-NP'
p447
s((S'I-NP'
p448
tp449
g23
tp450
g24
s((tS'CD'
p451
tp452
S'B-NP'
p453
s((g24
tp454
g70
tp455
g24
s((g60
tp456
g34
tp457
S'I-NP'
p458
s((S'I-NP'
p459
tp460
S'RBR'
p461
tp462
g24
s((S'I-NP'
p463
tp464
S'MD'
p465
tp466
g24
s((g447
tp467
S'VBN'
p468
tp469
S'I-NP'
p470
s((S'I-NP'
p471
tp472
g66
tp473
g24
s((S'I-NP'
p474
tp475
S'NNS'
p476
tp477
S'I-NP'
p478
s((S'I-NP'
p479
tp480
S'VBN'
p481
tp482
g24
s((S'B-NP'
p483
tp484
S'RB'
p485
tp486
g24
s((g24
tp487
S'RBR'
p488
tp489
g24
s((tS'RB'
p490
tp491
g24
s((S'I-NP'
p492
tp493
S'IN'
p494
tp495
g24
s((S'B-NP'
p496
tp497
S':'
p498
tp499
g24
s((g24
tp500
S'WDT'
p501
tp502
S'B-NP'
p503
s((S'I-NP'
p504
tp505
S'WRB'
p506
tp507
g24
s((g24
tp508
S'UH'
p509
tp510
S'B-NP'
p511
s((S'B-NP'
p512
tp513
S'NNS'
p514
tp515
g60
s((g24
tp516
S'IN'
p517
tp518
g24
s((S'I-NP'
p519
tp520
S'NNPS'
p521
tp522
g83
s((tS'RBR'
p523
tp524
g24
s((S'B-NP'
p525
tp526
S'RBR'
p527
tp528
S'I-NP'
p529
s((tS'PRP'
p530
tp531
S'B-NP'
p532
ssbsb.