(dp1
S'79ca5c22151f86e202139e2ca232079e78142a89'
p2
(F1279285243.9920831
N(dp3
Vinnugantija
p4
(lp5
S'LICENSE_VIEW'
p6
aS'STATICWIKI_CREATE'
p7
aS'LICENSE_CREATE'
p8
aS'SEARCH_VIEW'
p9
asVtestuser5
p10
(lp11
sVbalachandranbh
p12
(lp13
g7
aS'EMAIL_VIEW'
p14
ag8
asVmacharlaoz
p15
(lp16
S'SITE_ADMIN'
p17
ag9
ag6
asVhanumanag
p18
(lp19
g6
ag8
ag17
ag9
asVkadaksj
p20
(lp21
g17
ag8
ag6
ag9
asVinabd
p22
(lp23
g6
ag14
ag9
asVabhilashaar
p24
(lp25
g9
ag17
asVtestuser1
p26
(lp27
g7
ag6
asVqamarmi
p28
(lp29
g8
ag14
asVdandekarnj
p30
(lp31
g6
ag7
asVaartikh
p32
(lp33
g17
ag7
ag9
asVzankhanaav
p34
(lp35
g6
ag7
ag14
ag17
asVchalanaka
p36
(lp37
g8
ag7
ag9
asVdamaoe
p38
(lp39
g9
ag7
asVtestuser6
p40
(lp41
sVtestuser4
p42
(lp43
g8
ag6
asVchakradhardt
p44
(lp45
g7
ag8
ag6
asVtestuser2
p46
(lp47
g6
ag8
asVtestuser3
p48
(lp49
g6
asVbalasubramaniankb
p50
(lp51
g17
ag8
astp52
s.