(dp1
S'_oauth'
p2
ccopy_reg
_reconstructor
p3
(ctwisted.plugin
CachedDropin
p4
c__builtin__
object
p5
NtRp6
(dp7
S'moduleName'
p8
S'vtwt._oauth'
p9
sS'description'
p10
NsS'plugins'
p11
(lp12
g3
(ctwisted.plugin
CachedPlugin
p13
g5
NtRp14
(dp15
S'provided'
p16
(lp17
ctwisted.plugin
IPlugin
p18
acjersey.cli
ICommandFactory
p19
asS'dropin'
p20
g6
sS'name'
p21
S'loader'
p22
sg10
NsbasbsS'grep'
p23
g3
(g4
g5
NtRp24
(dp25
g8
S'vtwt.grep'
p26
sg10
Nsg11
(lp27
g3
(g13
g5
NtRp28
(dp29
g16
(lp30
g18
ag19
asg20
g24
sg21
g22
sg10
NsbasbsS'cli'
p31
g3
(g4
g5
NtRp32
(dp33
g8
S'vtwt.cli'
p34
sg10
Nsg11
(lp35
sbsS'tweet'
p36
g3
(g4
g5
NtRp37
(dp38
g8
S'vtwt.tweet'
p39
sg10
Nsg11
(lp40
g3
(g13
g5
NtRp41
(dp42
g16
(lp43
g18
ag19
asg20
g37
sg21
g22
sg10
NsbasbsS'watch'
p44
g3
(g4
g5
NtRp45
(dp46
g8
S'vtwt.watch'
p47
sg10
Nsg11
(lp48
g3
(g13
g5
NtRp49
(dp50
g16
(lp51
g18
ag19
asg20
g45
sg21
g22
sg10
NsbasbsS'_version'
p52
g3
(g4
g5
NtRp53
(dp54
g8
S'vtwt._version'
p55
sg10
Nsg11
(lp56
sbsS'svc'
p57
g3
(g4
g5
NtRp58
(dp59
g8
S'vtwt.svc'
p60
sg10
Nsg11
(lp61
sbsS'util'
p62
g3
(g4
g5
NtRp63
(dp64
g8
S'vtwt.util'
p65
sg10
Nsg11
(lp66
sbsS'unblock'
p67
g3
(g4
g5
NtRp68
(dp69
g8
S'vtwt.unblock'
p70
sg10
Nsg11
(lp71
g3
(g13
g5
NtRp72
(dp73
g16
(lp74
g18
ag19
asg20
g68
sg21
g22
sg10
NsbasbsS'followers'
p75
g3
(g4
g5
NtRp76
(dp77
g8
S'vtwt.followers'
p78
sg10
Nsg11
(lp79
g3
(g13
g5
NtRp80
(dp81
g16
(lp82
g18
ag19
asg20
g76
sg21
g22
sg10
NsbasbsS'following'
p83
g3
(g4
g5
NtRp84
(dp85
g8
S'vtwt.following'
p86
sg10
Nsg11
(lp87
g3
(g13
g5
NtRp88
(dp89
g16
(lp90
g18
ag19
asg20
g84
sg21
g22
sg10
NsbasbsS'follow'
p91
g3
(g4
g5
NtRp92
(dp93
g8
S'vtwt.follow'
p94
sg10
Nsg11
(lp95
g3
(g13
g5
NtRp96
(dp97
g16
(lp98
g18
ag19
asg20
g92
sg21
g22
sg10
NsbasbsS'unfollow'
p99
g3
(g4
g5
NtRp100
(dp101
g8
S'vtwt.unfollow'
p102
sg10
Nsg11
(lp103
g3
(g13
g5
NtRp104
(dp105
g16
(lp106
g18
ag19
asg20
g100
sg21
g22
sg10
NsbasbsS'retweet'
p107
g3
(g4
g5
NtRp108
(dp109
g8
S'vtwt.retweet'
p110
sg10
Nsg11
(lp111
g3
(g13
g5
NtRp112
(dp113
g16
(lp114
g18
ag19
asg20
g108
sg21
g22
sg10
NsbasbsS'block'
p115
g3
(g4
g5
NtRp116
(dp117
g8
S'vtwt.block'
p118
sg10
Nsg11
(lp119
g3
(g13
g5
NtRp120
(dp121
g16
(lp122
g18
ag19
asg20
g116
sg21
g22
sg10
Nsbasbs.