(dp1
S'fedef5d551730d8cb1aa04b8ccd82028bfaa680b'
p2
(F1279285050.626406
N(dp3
Vinvitebyall
p4
VFalse
p5
sVproduct_version
p6
V0.7b1
p7
sVdef_wikitype
p8
Vdraft
p9
sVtimezone
p10
VUTC
p11
sVvcstypes
p12
Vbzr, svn
p13
sVprojteamtypes
p14
Vdeveloper, member, non-members, owner
p15
sVsitename
p16
VZetaDemo
p17
sVreviewactions
p18
Vinvalid, rectified, redundant
p19
sVreviewnatures
p20
Vbug, comment, cosmetic, document, optimisation
p21
sVwelcomestring
p22
VDemonstration of Zeta Project Management Suite
p23
sVunicode_encoding
p24
Vutf-8
p25
sVproduct_name
p26
Vzeta
p27
sVstrictauth
p28
VFalse
p29
sVtickettypes
p30
Vblueprint, clarification, defect, document, enhancement, feature
p31
sVgooglemaps
p32
VFalse
p33
sVticketresolv
p34
Vduplicate, fixed, wontfix
p35
sVregrbyinvite
p36
VFalse
p37
sVdatabase_version
p38
V1.1
p39
sVspecialtags
p40
Vdownload, docs, featured
p41
sVticketseverity
p42
Vblocker, critical, major, minor, normal, trivial
p43
sVuserrel_types
p44
Vassociate, helper, mentor
p45
sVticketstatus
p46
Vaccept, assign, duplicate, fixed, new, open, reopen, review, verify, wontfix
p47
sVsiteadmin
p48
Vadmin
p49
sVinterzeta
p50
V{}
p51
sVenvpath
p52
V/home/pratap/mybzr/pratap/dev/zeta/defenv
p53
sVwikitypes
p54
Vblueprint, configuration, copyright, document, draft, installation, readme
p55
stp56
s.