(dp1
S'qexec_plugins'
p2
ccopy_reg
_reconstructor
p3
(ctwisted.plugin
CachedDropin
p4
c__builtin__
object
p5
NtRp6
(dp7
S'moduleName'
p8
S'twisted.plugins.qexec_plugins'
p9
sS'description'
p10
S'\nQuebert Executor plugin for Quebert.\n'
p11
sS'plugins'
p12
(lp13
g3
(ctwisted.plugin
CachedPlugin
p14
g5
NtRp15
(dp16
S'provided'
p17
(lp18
ctwisted.plugin
IPlugin
p19
actwisted.application.service
IServiceMaker
p20
asS'dropin'
p21
g6
sS'name'
p22
S'QuExecutorPlugin'
p23
sg10
S'\n    This plugin eases the process of creating an executor\n    using a Twisted Web server.\n    '
p24
sbasbsS'quebert_plugin'
p25
g3
(g4
g5
NtRp26
(dp27
S'moduleName'
p28
S'twisted.plugins.quebert_plugin'
p29
sS'description'
p30
S'\nQuebert plugin for Twisted.\n'
p31
sS'plugins'
p32
(lp33
g3
(g14
g5
NtRp34
(dp35
S'provided'
p36
(lp37
g19
ag20
asS'dropin'
p38
g26
sS'name'
p39
S'QuebertPlugin'
p40
sg30
S'\n    This plugin eases the process of creating a mediator that pulls\n    tasks from AMQP.\n    '
p41
sbasbs.