S'3.2'
p1
.S'LALR'
p1
.S'\xacY\xe0\xf4\x84l\x895\xad\x10\x05\xec\xa3m\x11\xba'
p1
.(dp1
I0
(dp2
S'SUBENTO_ID'
p3
I1
sS'CONFIG_PY_ID'
p4
I2
sS'MAINTAINER_ID'
p5
I29
sS'PLATFORMS_ID'
p6
I6
sS'FLAG_ID'
p7
I13
sS'SUMMARY_ID'
p8
I16
sS'URL_ID'
p9
I15
sS'LIBRARY_ID'
p10
I30
sS'NEWLINE'
p11
I20
sS'PATH_ID'
p12
I21
sS'AUTHOR_ID'
p13
I24
sS'EXECUTABLE_ID'
p14
I25
sS'HOOK_FILE_ID'
p15
I28
sS'$end'
p16
I-13
sS'DATAFILES_ID'
p17
I33
sS'DOWNLOAD_URL_ID'
p18
I36
sS'LICENSE_ID'
p19
I32
sS'MAINTAINER_EMAIL_ID'
p20
I43
sS'AUTHOR_EMAIL_ID'
p21
I57
sS'AND'
p22
I27
sS'EXTRA_SOURCE_FILES_ID'
p23
I48
sS'DESCRIPTION_ID'
p24
I54
sS'VERSION_ID'
p25
I10
sS'CLASSIFIERS_ID'
p26
I53
sS'NAME_ID'
p27
I56
ssI1
(dp28
S'COLON'
p29
I58
ssI2
(dp30
S'COLON'
p31
I59
ssI3
(dp32
g3
I-24
sg4
I-24
sg5
I-24
sg6
I-24
sg7
I-24
sg8
I-24
sg9
I-24
sg10
I-24
sg12
I-24
sg13
I-24
sg14
I-24
sg15
I-24
sg16
I-24
sg17
I-24
sg18
I-24
sg19
I-24
sg20
I-24
sg21
I-24
sg22
I-24
sg23
I-24
sg24
I-24
sg25
I-24
sg26
I-24
sg27
I-24
ssI4
(dp33
g3
I-10
sg4
I-10
sg5
I-10
sg6
I-10
sg7
I-10
sg8
I-10
sg9
I-10
sg10
I-10
sg12
I-10
sg13
I-10
sg14
I-10
sg15
I-10
sg16
I-10
sg17
I-10
sg18
I-10
sg19
I-10
sg20
I-10
sg21
I-10
sg22
I-10
sg23
I-10
sg24
I-10
sg25
I-10
sg26
I-10
sg27
I-10
ssI5
(dp34
g3
I-63
sg4
I-63
sg5
I-63
sg6
I-63
sg7
I-63
sg8
I-63
sg9
I-63
sg10
I-63
sg12
I-63
sg13
I-63
sg14
I-63
sg15
I-63
sg16
I-63
sg17
I-63
sg18
I-63
sg19
I-63
sg20
I-63
sg21
I-63
sg22
I-63
sg23
I-63
sS'INDENT'
p35
I60
sg24
I-63
sg25
I-63
sg26
I-63
sg27
I-63
ssI6
(dp36
S'COLON'
p37
I61
ssI7
(dp38
S'INDENT'
p39
I62
ssI8
(dp40
g3
I-6
sg4
I-6
sg5
I-6
sg6
I-6
sg7
I-6
sg8
I-6
sg9
I-6
sg10
I-6
sg12
I-6
sg13
I-6
sg14
I-6
sg15
I-6
sg16
I-6
sg17
I-6
sg18
I-6
sg19
I-6
sg20
I-6
sg21
I-6
sg22
I-6
sg23
I-6
sg24
I-6
sg25
I-6
sg26
I-6
sg27
I-6
ssI9
(dp41
g3
I-21
sg4
I-21
sg5
I-21
sg6
I-21
sg7
I-21
sg8
I-21
sg9
I-21
sg10
I-21
sg12
I-21
sg13
I-21
sg14
I-21
sg15
I-21
sg16
I-21
sg17
I-21
sg18
I-21
sg19
I-21
sg20
I-21
sg21
I-21
sg22
I-21
sg23
I-21
sg24
I-21
sg25
I-21
sg26
I-21
sg27
I-21
ssI10
(dp42
S'COLON'
p43
I63
ssI11
(dp44
g3
I-18
sg4
I-18
sg5
I-18
sg6
I-18
sg7
I-18
sg8
I-18
sg9
I-18
sg10
I-18
sg12
I-18
sg13
I-18
sg14
I-18
sg15
I-18
sg16
I-18
sg17
I-18
sg18
I-18
sg19
I-18
sg20
I-18
sg21
I-18
sg22
I-18
sg23
I-18
sg24
I-18
sg25
I-18
sg26
I-18
sg27
I-18
ssI12
(dp45
g3
I-26
sg4
I-26
sg5
I-26
sg6
I-26
sg7
I-26
sg8
I-26
sg9
I-26
sg10
I-26
sg12
I-26
sg13
I-26
sg14
I-26
sg15
I-26
sg16
I-26
sg17
I-26
sg18
I-26
sg19
I-26
sg20
I-26
sg21
I-26
sg22
I-26
sg23
I-26
sg24
I-26
sg25
I-26
sg26
I-26
sg27
I-26
ssI13
(dp46
S'COLON'
p47
I64
ssI14
(dp48
g3
I-11
sg4
I-11
sg5
I-11
sg6
I-11
sg7
I-11
sg8
I-11
sg9
I-11
sg10
I-11
sg12
I-11
sg13
I-11
sg14
I-11
sg15
I-11
sg16
I-11
sg17
I-11
sg18
I-11
sg19
I-11
sg20
I-11
sg21
I-11
sg22
I-11
sg23
I-11
sg24
I-11
sg25
I-11
sg26
I-11
sg27
I-11
ssI15
(dp49
S'COLON'
p50
I65
ssI16
(dp51
S'COLON'
p52
I66
ssI17
(dp53
S'LPAR'
p54
I67
sS'WORD'
p55
I73
sS'GREATER'
p56
I81
sS'LESS'
p57
I68
sS'NEWLINE'
p58
I74
sS'EQUAL'
p59
I69
sS'RPAR'
p60
I70
sS'COMMA'
p61
I83
sS'SLASH'
p62
I78
sS'SHARP'
p63
I76
sS'COLON'
p64
I75
sS'WS'
p65
I72
ssI18
(dp66
S'INDENT'
p67
I84
ssI19
(dp68
S'INDENT'
p69
I85
ssI20
(dp70
g3
I-4
sg4
I-4
sg5
I-4
sg6
I-4
sg7
I-4
sg8
I-4
sg9
I-4
sg10
I-4
sg12
I-4
sg13
I-4
sg14
I-4
sg15
I-4
sg16
I-4
sg17
I-4
sg18
I-4
sg19
I-4
sg20
I-4
sg21
I-4
sg22
I-4
sg23
I-4
sg24
I-4
sg25
I-4
sg26
I-4
sg27
I-4
ssI21
(dp71
S'COLON'
p72
I86
ssI22
(dp73
g3
I-29
sg4
I-29
sg5
I-29
sg6
I-29
sg7
I-29
sg8
I-29
sg9
I-29
sg10
I-29
sg12
I-29
sg13
I-29
sg14
I-29
sg15
I-29
sg16
I-29
sg17
I-29
sg18
I-29
sg19
I-29
sg20
I-29
sg21
I-29
sg22
I-29
sg23
I-29
sg24
I-29
sg25
I-29
sg26
I-29
sg27
I-29
ssI23
(dp74
g3
I-22
sg4
I-22
sg5
I-22
sg6
I-22
sg7
I-22
sg8
I-22
sg9
I-22
sg10
I-22
sg12
I-22
sg13
I-22
sg14
I-22
sg15
I-22
sg16
I-22
sg17
I-22
sg18
I-22
sg19
I-22
sg20
I-22
sg21
I-22
sg22
I-22
sg23
I-22
sg24
I-22
sg25
I-22
sg26
I-22
sg27
I-22
ssI24
(dp75
S'COLON'
p76
I87
ssI25
(dp77
S'COLON'
p78
I88
ssI26
(dp79
g3
I-3
sg4
I-3
sg5
I-3
sg6
I-3
sg7
I-3
sg8
I-3
sg9
I-3
sg10
I-3
sg12
I-3
sg13
I-3
sg14
I-3
sg15
I-3
sg16
I-3
sg17
I-3
sg18
I-3
sg19
I-3
sg20
I-3
sg21
I-3
sg22
I-3
sg23
I-3
sg24
I-3
sg25
I-3
sg26
I-3
sg27
I-3
ssI27
(dp80
S'BACKSLASH'
p81
I89
ssI28
(dp82
S'COLON'
p83
I90
ssI29
(dp84
S'COLON'
p85
I91
ssI30
(dp86
S'COLON'
p87
I92
ssI31
(dp88
g3
I-7
sg4
I-7
sg5
I-7
sg6
I-7
sg7
I-7
sg8
I-7
sg9
I-7
sg10
I-7
sg12
I-7
sg13
I-7
sg14
I-7
sg15
I-7
sg16
I-7
sg17
I-7
sg18
I-7
sg19
I-7
sg20
I-7
sg21
I-7
sg22
I-7
sg23
I-7
sg24
I-7
sg25
I-7
sg26
I-7
sg27
I-7
ssI32
(dp89
S'COLON'
p90
I93
ssI33
(dp91
S'COLON'
p92
I94
ssI34
(dp93
g3
I-20
sg4
I-20
sg5
I-20
sg6
I-20
sg7
I-20
sg8
I-20
sg9
I-20
sg10
I-20
sg12
I-20
sg13
I-20
sg14
I-20
sg15
I-20
sg16
I-20
sg17
I-20
sg18
I-20
sg19
I-20
sg20
I-20
sg21
I-20
sg22
I-20
sg23
I-20
sg24
I-20
sg25
I-20
sg26
I-20
sg27
I-20
ssI35
(dp94
g3
I-2
sg4
I-2
sg5
I-2
sg6
I-2
sg7
I-2
sg8
I-2
sg9
I-2
sg10
I-2
sg12
I-2
sg13
I-2
sg14
I-2
sg15
I-2
sg16
I-2
sg17
I-2
sg18
I-2
sg19
I-2
sg20
I-2
sg21
I-2
sg22
I-2
sg23
I-2
sg24
I-2
sg25
I-2
sg26
I-2
sg27
I-2
ssI36
(dp95
S'COLON'
p96
I95
ssI37
(dp97
g3
I-25
sg4
I-25
sg5
I-25
sg6
I-25
sg7
I-25
sg8
I-25
sg9
I-25
sg10
I-25
sg12
I-25
sg13
I-25
sg14
I-25
sg15
I-25
sg16
I-25
sg17
I-25
sg18
I-25
sg19
I-25
sg20
I-25
sg21
I-25
sg22
I-25
sg23
I-25
sg24
I-25
sg25
I-25
sg26
I-25
sg27
I-25
ssI38
(dp98
g3
I-5
sg4
I-5
sg5
I-5
sg6
I-5
sg7
I-5
sg8
I-5
sg9
I-5
sg10
I-5
sg12
I-5
sg13
I-5
sg14
I-5
sg15
I-5
sg16
I-5
sg17
I-5
sg18
I-5
sg19
I-5
sg20
I-5
sg21
I-5
sg22
I-5
sg23
I-5
sg24
I-5
sg25
I-5
sg26
I-5
sg27
I-5
ssI39
(dp99
g3
I-9
sg4
I-9
sg5
I-9
sg6
I-9
sg7
I-9
sg8
I-9
sg9
I-9
sg10
I-9
sg12
I-9
sg13
I-9
sg14
I-9
sg15
I-9
sg16
I-9
sg17
I-9
sg18
I-9
sg19
I-9
sg20
I-9
sg21
I-9
sg22
I-9
sg23
I-9
sg24
I-9
sg25
I-9
sg26
I-9
sg27
I-9
ssI40
(dp100
g3
I-16
sg4
I-16
sg5
I-16
sg6
I-16
sg7
I-16
sg8
I-16
sg9
I-16
sg10
I-16
sg12
I-16
sg13
I-16
sg14
I-16
sg15
I-16
sg16
I-16
sg17
I-16
sg18
I-16
sg19
I-16
sg20
I-16
sg21
I-16
sg22
I-16
sg23
I-16
sg24
I-16
sg25
I-16
sg26
I-16
sg27
I-16
ssI41
(dp101
g3
I-27
sg4
I-27
sg5
I-27
sg6
I-27
sg7
I-27
sg8
I-27
sg9
I-27
sg10
I-27
sg12
I-27
sg13
I-27
sg14
I-27
sg15
I-27
sg16
I-27
sg17
I-27
sg18
I-27
sg19
I-27
sg20
I-27
sg21
I-27
sg22
I-27
sg23
I-27
sg24
I-27
sg25
I-27
sg26
I-27
sg27
I-27
ssI42
(dp102
g3
I-8
sg4
I-8
sg5
I-8
sg6
I-8
sg7
I-8
sg8
I-8
sg9
I-8
sg10
I-8
sg12
I-8
sg13
I-8
sg14
I-8
sg15
I-8
sg16
I-8
sg17
I-8
sg18
I-8
sg19
I-8
sg20
I-8
sg21
I-8
sg22
I-8
sg23
I-8
sg24
I-8
sg25
I-8
sg26
I-8
sg27
I-8
ssI43
(dp103
S'COLON'
p104
I96
ssI44
(dp105
g3
I-19
sg4
I-19
sg5
I-19
sg6
I-19
sg7
I-19
sg8
I-19
sg9
I-19
sg10
I-19
sg12
I-19
sg13
I-19
sg14
I-19
sg15
I-19
sg16
I-19
sg17
I-19
sg18
I-19
sg19
I-19
sg20
I-19
sg21
I-19
sg22
I-19
sg23
I-19
sg24
I-19
sg25
I-19
sg26
I-19
sg27
I-19
ssI45
(dp106
S'INDENT'
p107
I97
ssI46
(dp108
g3
I1
sg4
I2
sg5
I29
sg6
I6
sg7
I13
sg8
I16
sg9
I15
sg10
I30
sg12
I21
sg13
I24
sg14
I25
sg15
I28
sS'$end'
p109
I0
sg17
I33
sg18
I36
sg19
I32
sg20
I43
sg21
I57
sg22
I27
sg23
I48
sg24
I54
sg25
I10
sg26
I53
sg27
I56
ssI47
(dp110
g3
I-12
sg4
I-12
sg5
I-12
sg6
I-12
sg7
I-12
sg8
I-12
sg9
I-12
sg10
I-12
sg12
I-12
sg13
I-12
sg14
I-12
sg15
I-12
sg16
I-12
sg17
I-12
sg18
I-12
sg19
I-12
sg20
I-12
sg21
I-12
sg22
I-12
sg23
I-12
sg24
I-12
sg25
I-12
sg26
I-12
sg27
I-12
ssI48
(dp111
S'COLON'
p112
I99
ssI49
(dp113
g3
I-28
sg4
I-28
sg5
I-28
sg6
I-28
sg7
I-28
sg8
I-28
sg9
I-28
sg10
I-28
sg12
I-28
sg13
I-28
sg14
I-28
sg15
I-28
sg16
I-28
sg17
I-28
sg18
I-28
sg19
I-28
sg20
I-28
sg21
I-28
sg22
I-28
sg23
I-28
sg24
I-28
sg25
I-28
sg26
I-28
sg27
I-28
ssI50
(dp114
g3
I-17
sg4
I-17
sg5
I-17
sg6
I-17
sg7
I-17
sg8
I-17
sg9
I-17
sg10
I-17
sg12
I-17
sg13
I-17
sg14
I-17
sg15
I-17
sg16
I-17
sg17
I-17
sg18
I-17
sg19
I-17
sg20
I-17
sg21
I-17
sg22
I-17
sg23
I-17
sg24
I-17
sg25
I-17
sg26
I-17
sg27
I-17
ssI51
(dp115
g3
I-23
sg4
I-23
sg5
I-23
sg6
I-23
sg7
I-23
sg8
I-23
sg9
I-23
sg10
I-23
sg12
I-23
sg13
I-23
sg14
I-23
sg15
I-23
sg16
I-23
sg17
I-23
sg18
I-23
sg19
I-23
sg20
I-23
sg21
I-23
sg22
I-23
sg23
I-23
sg24
I-23
sg25
I-23
sg26
I-23
sg27
I-23
ssI52
(dp116
g3
I-14
sg4
I-14
sg5
I-14
sg6
I-14
sg7
I-14
sg8
I-14
sg9
I-14
sg10
I-14
sg12
I-14
sg13
I-14
sg14
I-14
sg15
I-14
sg16
I-14
sg17
I-14
sg18
I-14
sg19
I-14
sg20
I-14
sg21
I-14
sg22
I-14
sg23
I-14
sg24
I-14
sg25
I-14
sg26
I-14
sg27
I-14
ssI53
(dp117
S'COLON'
p118
I100
ssI54
(dp119
S'COLON'
p120
I101
ssI55
(dp121
g3
I-15
sg4
I-15
sg5
I-15
sg6
I-15
sg7
I-15
sg8
I-15
sg9
I-15
sg10
I-15
sg12
I-15
sg13
I-15
sg14
I-15
sg15
I-15
sg16
I-15
sg17
I-15
sg18
I-15
sg19
I-15
sg20
I-15
sg21
I-15
sg22
I-15
sg23
I-15
sg24
I-15
sg25
I-15
sg26
I-15
sg27
I-15
ssI56
(dp122
S'COLON'
p123
I102
ssI57
(dp124
S'COLON'
p125
I103
ssI58
(dp126
g54
I67
sg55
I73
sg56
I81
sg57
I68
sg59
I69
sg60
I70
sg64
I75
sg62
I78
sg63
I76
sS'INDENT'
p127
I106
ssI59
(dp128
g54
I67
sg55
I73
sg56
I81
sg57
I68
sg59
I69
sg60
I70
sg61
I83
sg62
I78
sg63
I76
sg64
I75
sS'WS'
p129
I112
ssI60
(dp130
S'COMPILED_LIBRARY_ID'
p131
I114
sS'INSTALL_REQUIRES_ID'
p132
I126
sS'EXTENSION_ID'
p133
I115
sS'MODULES_ID'
p134
I127
sS'BUILD_REQUIRES_ID'
p135
I125
sS'PACKAGES_ID'
p136
I123
sS'IF'
p137
I128
ssI61
(dp138
g54
I67
sg55
I73
sg56
I81
sg57
I68
sg59
I69
sg60
I70
sg61
I83
sg62
I78
sg63
I76
sg64
I75
sg129
I112
ssI62
(dp139
S'MODULE_ID'
p140
I137
sS'FUNCTION_ID'
p141
I138
ssI63
(dp142
S'WORD'
p143
I139
ssI64
(dp144
g54
I67
sg55
I73
sg56
I81
sg57
I68
sg59
I69
sg60
I70
sg61
I83
sg62
I78
sg63
I76
sg64
I75
sg129
I112
ssI65
(dp145
g54
I67
sg55
I73
sg56
I81
sg57
I68
sg59
I69
sg60
I70
sg61
I83
sg62
I78
sg63
I76
sg64
I75
sg129
I112
ssI66
(dp146
g54
I67
sg55
I73
sg56
I81
sg57
I68
sg59
I69
sg60
I70
sg61
I83
sg62
I78
sg63
I76
sg64
I75
sS'WS'
p147
I143
ssI67
(dp148
S'DEDENT'
p149
I-160
sg54
I-160
sg3
I-160
sS'NEWLINE'
p150
I-160
sg4
I-160
sg57
I-160
sg5
I-160
sg6
I-160
sg59
I-160
sg60
I-160
sS'DEFAULT_ID'
p151
I-160
sg129
I-160
sg133
I-160
sg140
I-160
sg7
I-160
sg8
I-160
sg9
I-160
sS'INCLUDE_DIRS_ID'
p152
I-160
sg10
I-160
sg141
I-160
sg55
I-160
sS'FILES_ID'
p153
I-160
sg12
I-160
sg64
I-160
sg63
I-160
sg13
I-160
sg14
I-160
sg15
I-160
sg16
I-160
sS'SRCDIR_ID'
p154
I-160
sg17
I-160
sS'TARGET_ID'
p155
I-160
sg18
I-160
sg132
I-160
sg62
I-160
sg134
I-160
sg19
I-160
sg20
I-160
sg21
I-160
sg137
I-160
sg22
I-160
sg23
I-160
sS'INDENT'
p156
I-160
sg56
I-160
sg24
I-160
sg131
I-160
sg25
I-160
sg26
I-160
sg27
I-160
sg136
I-160
sg135
I-160
sS'COMMA'
p157
I-160
sS'SOURCES_ID'
p158
I-160
ssI68
(dp159
g149
I-162
sg54
I-162
sg3
I-162
sg150
I-162
sg4
I-162
sg57
I-162
sg5
I-162
sg6
I-162
sg59
I-162
sg60
I-162
sg151
I-162
sg129
I-162
sg133
I-162
sg140
I-162
sg7
I-162
sg8
I-162
sg9
I-162
sg152
I-162
sg10
I-162
sg141
I-162
sg55
I-162
sg153
I-162
sg12
I-162
sg64
I-162
sg63
I-162
sg13
I-162
sg14
I-162
sg15
I-162
sg16
I-162
sg154
I-162
sg17
I-162
sg155
I-162
sg18
I-162
sg132
I-162
sg62
I-162
sg134
I-162
sg19
I-162
sg20
I-162
sg21
I-162
sg137
I-162
sg22
I-162
sg23
I-162
sg156
I-162
sg56
I-162
sg24
I-162
sg131
I-162
sg25
I-162
sg26
I-162
sg27
I-162
sg136
I-162
sg135
I-162
sg157
I-162
sg158
I-162
ssI69
(dp160
g149
I-165
sg54
I-165
sg3
I-165
sg150
I-165
sg4
I-165
sg57
I-165
sg5
I-165
sg6
I-165
sg59
I-165
sg60
I-165
sg151
I-165
sg129
I-165
sg133
I-165
sg140
I-165
sg7
I-165
sg8
I-165
sg9
I-165
sg152
I-165
sg10
I-165
sg141
I-165
sg55
I-165
sg153
I-165
sg12
I-165
sg64
I-165
sg63
I-165
sg13
I-165
sg14
I-165
sg15
I-165
sg16
I-165
sg154
I-165
sg17
I-165
sg155
I-165
sg18
I-165
sg132
I-165
sg62
I-165
sg134
I-165
sg19
I-165
sg20
I-165
sg21
I-165
sg137
I-165
sg22
I-165
sg23
I-165
sg156
I-165
sg56
I-165
sg24
I-165
sg131
I-165
sg25
I-165
sg26
I-165
sg27
I-165
sg136
I-165
sg135
I-165
sg157
I-165
sg158
I-165
ssI70
(dp161
g149
I-161
sg54
I-161
sg3
I-161
sg150
I-161
sg4
I-161
sg57
I-161
sg5
I-161
sg6
I-161
sg59
I-161
sg60
I-161
sg151
I-161
sg129
I-161
sg133
I-161
sg140
I-161
sg7
I-161
sg8
I-161
sg9
I-161
sg152
I-161
sg10
I-161
sg141
I-161
sg55
I-161
sg153
I-161
sg12
I-161
sg64
I-161
sg63
I-161
sg13
I-161
sg14
I-161
sg15
I-161
sg16
I-161
sg154
I-161
sg17
I-161
sg155
I-161
sg18
I-161
sg132
I-161
sg62
I-161
sg134
I-161
sg19
I-161
sg20
I-161
sg21
I-161
sg137
I-161
sg22
I-161
sg23
I-161
sg156
I-161
sg56
I-161
sg24
I-161
sg131
I-161
sg25
I-161
sg26
I-161
sg27
I-161
sg136
I-161
sg135
I-161
sg157
I-161
sg158
I-161
ssI71
(dp162
S'DEDENT'
p163
I-167
sg54
I-167
sg3
I-167
sg4
I-167
sg57
I-167
sg5
I-167
sg6
I-167
sg59
I-167
sg60
I-167
sg64
I-167
sg129
I-167
sg140
I-167
sg7
I-167
sg8
I-167
sg9
I-167
sg10
I-167
sg141
I-167
sg55
I-167
sS'NEWLINE'
p164
I-167
sg12
I-167
sg61
I-167
sg63
I-167
sg13
I-167
sg14
I-167
sg15
I-167
sg16
I-167
sg154
I-167
sg17
I-167
sg155
I-167
sg18
I-167
sg62
I-167
sg19
I-167
sg20
I-167
sg21
I-167
sg22
I-167
sg153
I-167
sg23
I-167
sg67
I-167
sg56
I-167
sg24
I-167
sg25
I-167
sg26
I-167
sg151
I-167
sg27
I-167
ssI72
(dp165
g54
I67
sg55
I73
sg56
I81
sg57
I68
sS'NEWLINE'
p166
I145
sg59
I69
sg60
I70
sg64
I75
sg62
I78
sg63
I76
sg61
I83
ssI73
(dp167
g149
I-158
sg54
I-158
sg3
I-158
sg150
I-158
sg4
I-158
sg57
I-158
sg5
I-158
sg6
I-158
sg59
I-158
sg60
I-158
sg151
I-158
sg129
I-158
sg133
I-158
sg140
I-158
sg7
I-158
sg8
I-158
sg9
I-158
sg152
I-158
sg10
I-158
sg141
I-158
sg55
I-158
sg153
I-158
sg12
I-158
sg64
I-158
sg63
I-158
sg13
I-158
sg14
I-158
sg15
I-158
sg16
I-158
sg154
I-158
sg17
I-158
sg155
I-158
sg18
I-158
sg132
I-158
sg62
I-158
sg134
I-158
sg19
I-158
sg20
I-158
sg21
I-158
sg137
I-158
sg22
I-158
sg23
I-158
sg156
I-158
sg56
I-158
sg24
I-158
sg131
I-158
sg25
I-158
sg26
I-158
sg27
I-158
sg136
I-158
sg135
I-158
sg157
I-158
sg158
I-158
ssI74
(dp168
S'INDENT'
p169
I147
ssI75
(dp170
g149
I-159
sg54
I-159
sg3
I-159
sg150
I-159
sg4
I-159
sg57
I-159
sg5
I-159
sg6
I-159
sg59
I-159
sg60
I-159
sg151
I-159
sg129
I-159
sg133
I-159
sg140
I-159
sg7
I-159
sg8
I-159
sg9
I-159
sg152
I-159
sg10
I-159
sg141
I-159
sg55
I-159
sg153
I-159
sg12
I-159
sg64
I-159
sg63
I-159
sg13
I-159
sg14
I-159
sg15
I-159
sg16
I-159
sg154
I-159
sg17
I-159
sg155
I-159
sg18
I-159
sg132
I-159
sg62
I-159
sg134
I-159
sg19
I-159
sg20
I-159
sg21
I-159
sg137
I-159
sg22
I-159
sg23
I-159
sg156
I-159
sg56
I-159
sg24
I-159
sg131
I-159
sg25
I-159
sg26
I-159
sg27
I-159
sg136
I-159
sg135
I-159
sg157
I-159
sg158
I-159
ssI76
(dp171
g149
I-164
sg54
I-164
sg3
I-164
sg150
I-164
sg4
I-164
sg57
I-164
sg5
I-164
sg6
I-164
sg59
I-164
sg60
I-164
sg151
I-164
sg129
I-164
sg133
I-164
sg140
I-164
sg7
I-164
sg8
I-164
sg9
I-164
sg152
I-164
sg10
I-164
sg141
I-164
sg55
I-164
sg153
I-164
sg12
I-164
sg64
I-164
sg63
I-164
sg13
I-164
sg14
I-164
sg15
I-164
sg16
I-164
sg154
I-164
sg17
I-164
sg155
I-164
sg18
I-164
sg132
I-164
sg62
I-164
sg134
I-164
sg19
I-164
sg20
I-164
sg21
I-164
sg137
I-164
sg22
I-164
sg23
I-164
sg156
I-164
sg56
I-164
sg24
I-164
sg131
I-164
sg25
I-164
sg26
I-164
sg27
I-164
sg136
I-164
sg135
I-164
sg157
I-164
sg158
I-164
ssI77
(dp172
S'DEDENT'
p173
I-138
sg54
I67
sg3
I-138
sg4
I-138
sg57
I68
sg5
I-138
sg6
I-138
sg59
I69
sg60
I70
sS'DEFAULT_ID'
p174
I-138
sg129
I112
sg7
I-138
sg8
I-138
sg9
I-138
sg10
I-138
sg55
I73
sg150
I-138
sg12
I-138
sg61
I83
sg64
I75
sg13
I-138
sg14
I-138
sg15
I-138
sg16
I-138
sg17
I-138
sg18
I-138
sg62
I78
sg63
I76
sg19
I-138
sg20
I-138
sg21
I-138
sg22
I-138
sg23
I-138
sg56
I81
sg24
I-138
sg25
I-138
sg26
I-138
sg27
I-138
ssI78
(dp175
g149
I-163
sg54
I-163
sg3
I-163
sg150
I-163
sg4
I-163
sg57
I-163
sg5
I-163
sg6
I-163
sg59
I-163
sg60
I-163
sg151
I-163
sg129
I-163
sg133
I-163
sg140
I-163
sg7
I-163
sg8
I-163
sg9
I-163
sg152
I-163
sg10
I-163
sg141
I-163
sg55
I-163
sg153
I-163
sg12
I-163
sg64
I-163
sg63
I-163
sg13
I-163
sg14
I-163
sg15
I-163
sg16
I-163
sg154
I-163
sg17
I-163
sg155
I-163
sg18
I-163
sg132
I-163
sg62
I-163
sg134
I-163
sg19
I-163
sg20
I-163
sg21
I-163
sg137
I-163
sg22
I-163
sg23
I-163
sg156
I-163
sg56
I-163
sg24
I-163
sg131
I-163
sg25
I-163
sg26
I-163
sg27
I-163
sg136
I-163
sg135
I-163
sg157
I-163
sg158
I-163
ssI79
(dp176
g3
I-144
sg4
I-144
sg5
I-144
sg6
I-144
sg7
I-144
sg8
I-144
sg9
I-144
sg10
I-144
sg150
I149
sg12
I-144
sg13
I-144
sg14
I-144
sg15
I-144
sg16
I-144
sg17
I-144
sg18
I-144
sg19
I-144
sg20
I-144
sg21
I-144
sg22
I-144
sg23
I-144
sg24
I-144
sg25
I-144
sg26
I-144
sg27
I-144
ssI80
(dp177
g173
I-140
sg54
I-140
sg3
I-140
sg4
I-140
sg57
I-140
sg5
I-140
sg6
I-140
sg59
I-140
sg60
I-140
sg64
I-140
sg129
I-140
sg7
I-140
sg8
I-140
sg9
I-140
sg10
I-140
sg55
I-140
sg150
I-140
sg12
I-140
sg61
I-140
sg63
I-140
sg13
I-140
sg14
I-140
sg15
I-140
sg16
I-140
sg17
I-140
sg18
I-140
sg62
I-140
sg19
I-140
sg20
I-140
sg21
I-140
sg22
I-140
sg23
I-140
sg56
I-140
sg24
I-140
sg25
I-140
sg26
I-140
sg174
I-140
sg27
I-140
ssI81
(dp178
g149
I-166
sg54
I-166
sg3
I-166
sg150
I-166
sg4
I-166
sg57
I-166
sg5
I-166
sg6
I-166
sg59
I-166
sg60
I-166
sg151
I-166
sg129
I-166
sg133
I-166
sg140
I-166
sg7
I-166
sg8
I-166
sg9
I-166
sg152
I-166
sg10
I-166
sg141
I-166
sg55
I-166
sg153
I-166
sg12
I-166
sg64
I-166
sg63
I-166
sg13
I-166
sg14
I-166
sg15
I-166
sg16
I-166
sg154
I-166
sg17
I-166
sg155
I-166
sg18
I-166
sg132
I-166
sg62
I-166
sg134
I-166
sg19
I-166
sg20
I-166
sg21
I-166
sg137
I-166
sg22
I-166
sg23
I-166
sg156
I-166
sg56
I-166
sg24
I-166
sg131
I-166
sg25
I-166
sg26
I-166
sg27
I-166
sg136
I-166
sg135
I-166
sg157
I-166
sg158
I-166
ssI82
(dp179
S'INDENT'
p180
I151
ssI83
(dp181
g163
I-168
sg54
I-168
sg3
I-168
sg4
I-168
sg57
I-168
sg5
I-168
sg6
I-168
sg59
I-168
sg60
I-168
sg64
I-168
sg129
I-168
sg140
I-168
sg7
I-168
sg8
I-168
sg9
I-168
sg10
I-168
sg141
I-168
sg55
I-168
sg164
I-168
sg12
I-168
sg61
I-168
sg63
I-168
sg13
I-168
sg14
I-168
sg15
I-168
sg16
I-168
sg154
I-168
sg17
I-168
sg155
I-168
sg18
I-168
sg62
I-168
sg19
I-168
sg20
I-168
sg21
I-168
sg22
I-168
sg153
I-168
sg23
I-168
sg67
I-168
sg56
I-168
sg24
I-168
sg25
I-168
sg26
I-168
sg151
I-168
sg27
I-168
ssI84
(dp182
S'DESCRIPTION_ID'
p183
I155
sg151
I157
ssI85
(dp184
S'DESCRIPTION_ID'
p185
I158
sg174
I160
ssI86
(dp186
g54
I67
sg55
I73
sg56
I81
sg57
I68
sg59
I69
sg60
I70
sg61
I83
sg62
I78
sg63
I76
sg64
I75
sg129
I112
ssI87
(dp187
g54
I67
sg55
I73
sg56
I81
sg57
I68
sg59
I69
sg60
I70
sg61
I83
sg62
I78
sg63
I76
sg64
I75
sg147
I143
ssI88
(dp188
g54
I67
sg55
I73
sg56
I81
sg57
I68
sg59
I69
sg60
I70
sg61
I83
sg62
I78
sg63
I76
sg64
I75
sg129
I112
ssI89
(dp189
g3
I-48
sg4
I-48
sg5
I-48
sg6
I-48
sg7
I-48
sg8
I-48
sg9
I-48
sg10
I-48
sg12
I-48
sg13
I-48
sg14
I-48
sg15
I-48
sg16
I-48
sg17
I-48
sg18
I-48
sg19
I-48
sg20
I-48
sg21
I-48
sg22
I-48
sg23
I-48
sg24
I-48
sg25
I-48
sg26
I-48
sg27
I-48
ssI90
(dp190
g54
I67
sg55
I73
sg56
I81
sg57
I68
sg59
I69
sg60
I70
sg64
I75
sg62
I78
sg63
I76
sg127
I106
ssI91
(dp191
g54
I67
sg55
I73
sg56
I81
sg57
I68
sg59
I69
sg60
I70
sg61
I83
sg62
I78
sg63
I76
sg64
I75
sg147
I143
ssI92
(dp192
g3
I-66
sg4
I-66
sg5
I-66
sg6
I-66
sg7
I-66
sg8
I-66
sg9
I-66
sg10
I-66
sS'WORD'
p193
I169
sg12
I-66
sg13
I-66
sg14
I-66
sg15
I-66
sg16
I-66
sg17
I-66
sg18
I-66
sg19
I-66
sg20
I-66
sg21
I-66
sg22
I-66
sg23
I-66
sg35
I-66
sg24
I-66
sg25
I-66
sg26
I-66
sg27
I-66
ssI93
(dp194
g54
I67
sg55
I73
sg56
I81
sg57
I68
sg59
I69
sg60
I70
sg61
I83
sg62
I78
sg63
I76
sg64
I75
sg129
I112
ssI94
(dp195
g193
I169
ssI95
(dp196
g54
I67
sg55
I73
sg56
I81
sg57
I68
sg59
I69
sg60
I70
sg61
I83
sg62
I78
sg63
I76
sg64
I75
sg129
I112
ssI96
(dp197
g54
I67
sg55
I73
sg56
I81
sg57
I68
sg59
I69
sg60
I70
sg61
I83
sg62
I78
sg63
I76
sg64
I75
sg129
I112
ssI97
(dp198
g154
I183
sg155
I180
sg153
I179
ssI98
(dp199
g3
I-1
sg4
I-1
sg5
I-1
sg6
I-1
sg7
I-1
sg8
I-1
sg9
I-1
sg10
I-1
sg12
I-1
sg13
I-1
sg14
I-1
sg15
I-1
sg16
I-1
sg17
I-1
sg18
I-1
sg19
I-1
sg20
I-1
sg21
I-1
sg22
I-1
sg23
I-1
sg24
I-1
sg25
I-1
sg26
I-1
sg27
I-1
ssI99
(dp200
g54
I67
sg55
I73
sg56
I81
sg57
I68
sg59
I69
sg60
I70
sg64
I75
sg62
I78
sg63
I76
sg127
I106
ssI100
(dp201
g54
I67
sg55
I73
sg56
I81
sg57
I68
sS'NEWLINE'
p202
I185
sg59
I69
sg60
I70
sg61
I83
sg62
I78
sg63
I76
sg64
I75
sg129
I112
ssI101
(dp203
g54
I-146
sg55
I-146
sg56
I-146
sg57
I-146
sg58
I-146
sg59
I-146
sg60
I-146
sg61
I-146
sg62
I-146
sg63
I-146
sg64
I-146
sg65
I-146
ssI102
(dp204
S'WORD'
p205
I189
ssI103
(dp206
g54
I67
sg55
I73
sg56
I81
sg57
I68
sg59
I69
sg60
I70
sg61
I83
sg62
I78
sg63
I76
sg64
I75
sg129
I112
ssI104
(dp207
g149
I-130
sg3
I-130
sg4
I-130
sg153
I-130
sg5
I-130
sg6
I-130
sg133
I-130
sg7
I-130
sg8
I-130
sg9
I-130
sS'INCLUDE_DIRS_ID'
p208
I-130
sg10
I-130
sg12
I-130
sS'SOURCES_ID'
p209
I-130
sg157
I191
sg13
I-130
sg14
I-130
sg136
I-130
sg16
I-130
sg154
I-130
sg17
I-130
sg155
I-130
sg18
I-130
sg132
I-130
sg134
I-130
sg19
I-130
sg20
I-130
sg21
I-130
sg137
I-130
sg22
I-130
sg23
I-130
sg24
I-130
sg131
I-130
sg25
I-130
sg26
I-130
sg27
I-130
sg15
I-130
sg135
I-130
ssI105
(dp210
S'DEDENT'
p211
I-157
sg54
I-157
sg3
I-157
sg4
I-157
sg57
I-157
sg5
I-157
sg6
I-157
sg59
I-157
sg60
I-157
sg133
I-157
sg7
I-157
sg8
I-157
sg9
I-157
sg152
I-157
sg10
I-157
sg55
I-157
sg153
I-157
sg12
I-157
sg64
I-157
sg63
I-157
sg13
I-157
sg14
I-157
sg15
I-157
sg16
I-157
sg154
I-157
sg17
I-157
sg155
I-157
sg18
I-157
sg132
I-157
sg62
I-157
sg134
I-157
sg19
I-157
sg20
I-157
sg21
I-157
sg137
I-157
sg22
I-157
sg23
I-157
sg56
I-157
sg24
I-157
sg131
I-157
sg25
I-157
sg26
I-157
sg27
I-157
sg136
I-157
sg135
I-157
sg157
I-157
sg158
I-157
ssI106
(dp212
g54
I67
sg55
I73
sg56
I81
sg57
I68
sg59
I69
sg60
I70
sg64
I75
sg62
I78
sg63
I76
ssI107
(dp213
S'DEDENT'
p214
I-134
sg54
I67
sg3
I-134
sg4
I-134
sg153
I-134
sg5
I-134
sg6
I-134
sg59
I69
sg60
I70
sg64
I75
sg133
I-134
sg7
I-134
sg208
I-134
sg9
I-134
sg8
I-134
sg10
I-134
sg55
I73
sg57
I68
sg12
I-134
sg209
I-134
sg157
I-134
sg13
I-134
sg14
I-134
sg15
I-134
sg16
I-134
sg154
I-134
sg63
I76
sg17
I-134
sg155
I-134
sg18
I-134
sg132
I-134
sg62
I78
sg134
I-134
sg19
I-134
sg20
I-134
sg21
I-134
sg137
I-134
sg22
I-134
sg23
I-134
sg56
I81
sg24
I-134
sg131
I-134
sg25
I-134
sg26
I-134
sg27
I-134
sg136
I-134
sg135
I-134
ssI108
(dp215
g3
I-49
sg4
I-49
sg5
I-49
sg6
I-49
sg7
I-49
sg8
I-49
sg9
I-49
sg10
I-49
sg12
I-49
sg13
I-49
sg14
I-49
sg15
I-49
sg16
I-49
sg17
I-49
sg18
I-49
sg19
I-49
sg20
I-49
sg21
I-49
sg22
I-49
sg23
I-49
sg24
I-49
sg25
I-49
sg26
I-49
sg27
I-49
ssI109
(dp216
g149
I-129
sg3
I-129
sg4
I-129
sg153
I-129
sg5
I-129
sg6
I-129
sg133
I-129
sg7
I-129
sg8
I-129
sg9
I-129
sg208
I-129
sg10
I-129
sg12
I-129
sg209
I-129
sg13
I-129
sg14
I-129
sg136
I-129
sg16
I-129
sg154
I-129
sg17
I-129
sg155
I-129
sg18
I-129
sg132
I-129
sg134
I-129
sg19
I-129
sg20
I-129
sg21
I-129
sg137
I-129
sg22
I-129
sg23
I-129
sg24
I-129
sg131
I-129
sg25
I-129
sg26
I-129
sg27
I-129
sg15
I-129
sg135
I-129
ssI110
(dp217
S'DEDENT'
p218
I-169
sg54
I-169
sg3
I-169
sg4
I-169
sg57
I-169
sg5
I-169
sg6
I-169
sg59
I-169
sg60
I-169
sg64
I-169
sg129
I-169
sg140
I-169
sg7
I-169
sg8
I-169
sg9
I-169
sg10
I-169
sg141
I-169
sg55
I-169
sS'NEWLINE'
p219
I-169
sg12
I-169
sg61
I-169
sg63
I-169
sg13
I-169
sg14
I-169
sg15
I-169
sg16
I-169
sg154
I-169
sg17
I-169
sg155
I-169
sg18
I-169
sg62
I-169
sg19
I-169
sg20
I-169
sg21
I-169
sg22
I-169
sg153
I-169
sg23
I-169
sg69
I-169
sg56
I-169
sg24
I-169
sg25
I-169
sg26
I-169
sg151
I-169
sg27
I-169
ssI111
(dp220
S'DEDENT'
p221
I-155
sg54
I-155
sg3
I-155
sg4
I-155
sg57
I-155
sg5
I-155
sg6
I-155
sg59
I-155
sg60
I-155
sg64
I-155
sg129
I-155
sg140
I-155
sg7
I-155
sg8
I-155
sg9
I-155
sg10
I-155
sg141
I-155
sg55
I-155
sg153
I-155
sg12
I-155
sg61
I-155
sg63
I-155
sg13
I-155
sg14
I-155
sg15
I-155
sg16
I-155
sg154
I-155
sg17
I-155
sg155
I-155
sg18
I-155
sg62
I-155
sg19
I-155
sg20
I-155
sg21
I-155
sg22
I-155
sg23
I-155
sS'INDENT'
p222
I-155
sg56
I-155
sg24
I-155
sg25
I-155
sg26
I-155
sg151
I-155
sg27
I-155
ssI112
(dp223
g218
I-170
sg54
I-170
sg3
I-170
sg4
I-170
sg57
I-170
sg5
I-170
sg6
I-170
sg59
I-170
sg60
I-170
sg64
I-170
sg129
I-170
sg140
I-170
sg7
I-170
sg8
I-170
sg9
I-170
sg10
I-170
sg141
I-170
sg55
I-170
sg219
I-170
sg12
I-170
sg61
I-170
sg63
I-170
sg13
I-170
sg14
I-170
sg15
I-170
sg16
I-170
sg154
I-170
sg17
I-170
sg155
I-170
sg18
I-170
sg62
I-170
sg19
I-170
sg20
I-170
sg21
I-170
sg22
I-170
sg153
I-170
sg23
I-170
sg69
I-170
sg56
I-170
sg24
I-170
sg25
I-170
sg26
I-170
sg151
I-170
sg27
I-170
ssI113
(dp224
g54
I67
sg3
I-41
sg4
I-41
sg57
I68
sg5
I-41
sg6
I-41
sg59
I69
sg60
I70
sg129
I112
sg7
I-41
sg8
I-41
sg9
I-41
sg10
I-41
sg55
I73
sg12
I-41
sg61
I83
sg64
I75
sg13
I-41
sg14
I-41
sg15
I-41
sg16
I-41
sg17
I-41
sg18
I-41
sg62
I78
sg63
I76
sg19
I-41
sg20
I-41
sg21
I-41
sg22
I-41
sg23
I-41
sg56
I81
sg24
I-41
sg25
I-41
sg26
I-41
sg27
I-41
ssI114
(dp225
S'COLON'
p226
I195
ssI115
(dp227
S'COLON'
p228
I196
ssI116
(dp229
S'DEDENT'
p230
I-68
sg131
I-68
sg132
I-68
sg133
I-68
sg134
I-68
sg135
I-68
sg136
I-68
sg137
I-68
ssI117
(dp231
g149
I-72
sg131
I-72
sg132
I-72
sg133
I-72
sg134
I-72
sg135
I-72
sg136
I-72
sg137
I-72
ssI118
(dp232
g149
I-70
sg131
I-70
sg132
I-70
sg133
I-70
sg134
I-70
sg135
I-70
sg136
I-70
sg137
I-70
ssI119
(dp233
g149
I-74
sg131
I-74
sg132
I-74
sg133
I-74
sg134
I-74
sg135
I-74
sg136
I-74
sg137
I-74
ssI120
(dp234
g149
I-71
sg131
I-71
sg132
I-71
sg133
I-71
sg134
I-71
sg135
I-71
sg136
I-71
sg137
I-71
ssI121
(dp235
g149
I-69
sg131
I-69
sg132
I-69
sg133
I-69
sg134
I-69
sg135
I-69
sg136
I-69
sg137
I-69
ssI122
(dp236
g149
I197
sg131
I114
sg132
I126
sg133
I115
sg134
I127
sg135
I125
sg136
I123
sg137
I128
ssI123
(dp237
S'COLON'
p238
I199
ssI124
(dp239
g149
I-73
sg131
I-73
sg132
I-73
sg133
I-73
sg134
I-73
sg135
I-73
sg136
I-73
sg137
I-73
ssI125
(dp240
S'COLON'
p241
I200
ssI126
(dp242
S'COLON'
p243
I201
ssI127
(dp244
S'COLON'
p245
I202
ssI128
(dp246
S'FALSE'
p247
I207
sS'OS_OP'
p248
I208
sS'error'
p249
I209
sS'NOT_OP'
p250
I203
sS'TRUE'
p251
I212
sS'FLAG_OP'
p252
I204
ssI129
(dp253
g149
I-75
sg131
I-75
sg132
I-75
sg133
I-75
sg134
I-75
sg135
I-75
sg136
I-75
sg137
I-75
ssI130
(dp254
g222
I213
ssI131
(dp255
S'INDENT'
p256
I214
ssI132
(dp257
g54
I67
sg3
I-39
sg4
I-39
sg57
I68
sg5
I-39
sg6
I-39
sg59
I69
sg60
I70
sg129
I112
sg7
I-39
sg8
I-39
sg9
I-39
sg10
I-39
sg55
I73
sg12
I-39
sg61
I83
sg64
I75
sg13
I-39
sg14
I-39
sg15
I-39
sg16
I-39
sg17
I-39
sg18
I-39
sg62
I78
sg63
I76
sg19
I-39
sg20
I-39
sg21
I-39
sg22
I-39
sg23
I-39
sg56
I81
sg24
I-39
sg25
I-39
sg26
I-39
sg27
I-39
ssI133
(dp258
g221
I-125
sg140
I-125
sg141
I-125
ssI134
(dp259
g221
I215
sg140
I137
sg141
I138
ssI135
(dp260
g221
I-126
sg140
I-126
sg141
I-126
ssI136
(dp261
g221
I-124
sg140
I-124
sg141
I-124
ssI137
(dp262
S'COLON'
p263
I217
ssI138
(dp264
S'COLON'
p265
I218
ssI139
(dp266
g3
I-176
sg4
I-176
sg5
I-176
sg6
I-176
sg7
I-176
sg8
I-176
sg9
I-176
sg10
I-176
sg12
I-176
sg13
I-176
sg14
I-176
sg15
I-176
sg16
I-176
sg17
I-176
sg18
I-176
sg19
I-176
sg20
I-176
sg21
I-176
sg22
I-176
sg23
I-176
sg24
I-176
sg25
I-176
sg26
I-176
sg27
I-176
ssI140
(dp267
g3
I-40
sg4
I-40
sg5
I-40
sg6
I-40
sg7
I-40
sg8
I-40
sg9
I-40
sg10
I-40
sg12
I-40
sg13
I-40
sg14
I-40
sg15
I-40
sg16
I-40
sg17
I-40
sg18
I-40
sg19
I-40
sg20
I-40
sg21
I-40
sg22
I-40
sg23
I-40
sg24
I-40
sg25
I-40
sg26
I-40
sg27
I-40
ssI141
(dp268
g54
I67
sg67
I-114
sg56
I81
sg57
I68
sg63
I76
sg59
I69
sg60
I70
sg129
I112
sg62
I78
sg55
I73
sg64
I75
sg61
I83
ssI142
(dp269
g54
I67
sg3
I-32
sg4
I-32
sg57
I68
sg5
I-32
sg6
I-32
sg59
I69
sg60
I70
sg129
I112
sg7
I-32
sg8
I-32
sg9
I-32
sg10
I-32
sg55
I73
sg12
I-32
sg61
I83
sg64
I75
sg13
I-32
sg14
I-32
sg15
I-32
sg16
I-32
sg17
I-32
sg18
I-32
sg62
I78
sg63
I76
sg19
I-32
sg20
I-32
sg21
I-32
sg22
I-32
sg23
I-32
sg56
I81
sg24
I-32
sg25
I-32
sg26
I-32
sg27
I-32
ssI143
(dp270
g54
I67
sg55
I73
sg56
I81
sg57
I68
sg59
I69
sg60
I70
sg64
I75
sg62
I78
sg63
I76
sg61
I83
ssI144
(dp271
g3
I-31
sg4
I-31
sg5
I-31
sg6
I-31
sg7
I-31
sg8
I-31
sg9
I-31
sg10
I-31
sg12
I-31
sg13
I-31
sg14
I-31
sg15
I-31
sg16
I-31
sg17
I-31
sg18
I-31
sg19
I-31
sg20
I-31
sg21
I-31
sg22
I-31
sg23
I-31
sg24
I-31
sg25
I-31
sg26
I-31
sg27
I-31
ssI145
(dp272
S'INDENT'
p273
I219
ssI146
(dp274
g173
I-137
sg54
I67
sg3
I-137
sg4
I-137
sg57
I68
sg5
I-137
sg6
I-137
sg59
I69
sg60
I70
sg174
I-137
sg129
I112
sg7
I-137
sg8
I-137
sg9
I-137
sg10
I-137
sg55
I73
sg150
I-137
sg12
I-137
sg61
I83
sg64
I75
sg13
I-137
sg14
I-137
sg15
I-137
sg16
I-137
sg17
I-137
sg18
I-137
sg62
I78
sg63
I76
sg19
I-137
sg20
I-137
sg21
I-137
sg22
I-137
sg23
I-137
sg56
I81
sg24
I-137
sg25
I-137
sg26
I-137
sg27
I-137
ssI147
(dp275
g54
I67
sg156
I227
sg56
I81
sg57
I68
sg63
I76
sg150
I149
sg59
I69
sg60
I70
sg129
I112
sg62
I78
sg55
I73
sg64
I75
sg61
I83
ssI148
(dp276
g173
I-139
sg54
I-139
sg3
I-139
sg4
I-139
sg57
I-139
sg5
I-139
sg6
I-139
sg59
I-139
sg60
I-139
sg64
I-139
sg129
I-139
sg7
I-139
sg8
I-139
sg9
I-139
sg10
I-139
sg55
I-139
sg150
I-139
sg12
I-139
sg61
I-139
sg63
I-139
sg13
I-139
sg14
I-139
sg15
I-139
sg16
I-139
sg17
I-139
sg18
I-139
sg62
I-139
sg19
I-139
sg20
I-139
sg21
I-139
sg22
I-139
sg23
I-139
sg56
I-139
sg24
I-139
sg25
I-139
sg26
I-139
sg174
I-139
sg27
I-139
ssI149
(dp277
S'DEDENT'
p278
I-153
sg54
I-153
sg156
I-153
sg56
I-153
sg57
I-153
sg63
I-153
sg150
I-153
sg59
I-153
sg60
I-153
sg129
I-153
sg62
I-153
sg55
I-153
sg64
I-153
sg61
I-153
ssI150
(dp279
g180
I-145
ssI151
(dp280
g54
I67
sg156
I227
sg56
I81
sg57
I68
sg63
I76
sg150
I149
sg59
I69
sg60
I70
sg129
I112
sg62
I78
sg55
I73
sg64
I75
sg61
I83
ssI152
(dp281
g163
I229
sg183
I155
sg151
I157
ssI153
(dp282
g163
I-117
sg183
I-117
sg151
I-117
ssI154
(dp283
g163
I-118
sg183
I-118
sg151
I-118
ssI155
(dp284
S'COLON'
p285
I231
ssI156
(dp286
g163
I-116
sg183
I-116
sg151
I-116
ssI157
(dp287
S'COLON'
p288
I232
ssI158
(dp289
S'COLON'
p290
I233
ssI159
(dp291
g173
I-108
sg185
I-108
sg174
I-108
ssI160
(dp292
S'COLON'
p293
I234
ssI161
(dp294
g173
I-109
sg185
I-109
sg174
I-109
ssI162
(dp295
g173
I-110
sg185
I-110
sg174
I-110
ssI163
(dp296
g173
I235
sg185
I158
sg174
I160
ssI164
(dp297
g54
I67
sg69
I-106
sg56
I81
sg57
I68
sg63
I76
sg59
I69
sg60
I70
sg129
I112
sg62
I78
sg55
I73
sg64
I75
sg61
I83
ssI165
(dp298
g3
I-34
sg4
I-34
sg5
I-34
sg6
I-34
sg7
I-34
sg8
I-34
sg9
I-34
sg10
I-34
sg12
I-34
sg13
I-34
sg14
I-34
sg15
I-34
sg16
I-34
sg17
I-34
sg18
I-34
sg19
I-34
sg20
I-34
sg21
I-34
sg22
I-34
sg23
I-34
sg24
I-34
sg25
I-34
sg26
I-34
sg27
I-34
ssI166
(dp299
g54
I67
sg39
I-122
sg56
I81
sg57
I68
sg63
I76
sg59
I69
sg60
I70
sg129
I112
sg62
I78
sg55
I73
sg64
I75
sg61
I83
ssI167
(dp300
g3
I-50
sg4
I-50
sg5
I-50
sg6
I-50
sg7
I-50
sg8
I-50
sg9
I-50
sg10
I-50
sg12
I-50
sg13
I-50
sg14
I-50
sg15
I-50
sg16
I-50
sg17
I-50
sg18
I-50
sg19
I-50
sg20
I-50
sg21
I-50
sg22
I-50
sg23
I-50
sg24
I-50
sg25
I-50
sg26
I-50
sg27
I-50
ssI168
(dp301
g3
I-36
sg4
I-36
sg5
I-36
sg6
I-36
sg7
I-36
sg8
I-36
sg9
I-36
sg10
I-36
sg12
I-36
sg13
I-36
sg14
I-36
sg15
I-36
sg16
I-36
sg17
I-36
sg18
I-36
sg19
I-36
sg20
I-36
sg21
I-36
sg22
I-36
sg23
I-36
sg24
I-36
sg25
I-36
sg26
I-36
sg27
I-36
ssI169
(dp302
g3
I-175
sg4
I-175
sg5
I-175
sg6
I-175
sS'RPAR'
p303
I-175
sg7
I-175
sg8
I-175
sg9
I-175
sg10
I-175
sg12
I-175
sg13
I-175
sg14
I-175
sg15
I-175
sg16
I-175
sg17
I-175
sg18
I-175
sg19
I-175
sg20
I-175
sg21
I-175
sg22
I-175
sg23
I-175
sg35
I-175
sg24
I-175
sg25
I-175
sg26
I-175
sg27
I-175
ssI170
(dp304
g3
I-65
sg4
I-65
sg5
I-65
sg6
I-65
sg7
I-65
sg8
I-65
sg9
I-65
sg10
I-65
sg12
I-65
sg13
I-65
sg14
I-65
sg15
I-65
sg16
I-65
sg17
I-65
sg18
I-65
sg19
I-65
sg20
I-65
sg21
I-65
sg22
I-65
sg23
I-65
sg35
I-65
sg24
I-65
sg25
I-65
sg26
I-65
sg27
I-65
ssI171
(dp305
g3
I-64
sg4
I-64
sg5
I-64
sg6
I-64
sg7
I-64
sg8
I-64
sg9
I-64
sg10
I-64
sg12
I-64
sg13
I-64
sg14
I-64
sg15
I-64
sg16
I-64
sg17
I-64
sg18
I-64
sg19
I-64
sg20
I-64
sg21
I-64
sg22
I-64
sg23
I-64
sg35
I-64
sg24
I-64
sg25
I-64
sg26
I-64
sg27
I-64
ssI172
(dp306
g54
I67
sg3
I-38
sg4
I-38
sg57
I68
sg5
I-38
sg6
I-38
sg59
I69
sg60
I70
sg129
I112
sg7
I-38
sg8
I-38
sg9
I-38
sg10
I-38
sg55
I73
sg12
I-38
sg61
I83
sg64
I75
sg13
I-38
sg14
I-38
sg15
I-38
sg16
I-38
sg17
I-38
sg18
I-38
sg62
I78
sg63
I76
sg19
I-38
sg20
I-38
sg21
I-38
sg22
I-38
sg23
I-38
sg56
I81
sg24
I-38
sg25
I-38
sg26
I-38
sg27
I-38
ssI173
(dp307
g107
I-53
ssI174
(dp308
g54
I67
sg3
I-33
sg4
I-33
sg57
I68
sg5
I-33
sg6
I-33
sg59
I69
sg60
I70
sg129
I112
sg7
I-33
sg8
I-33
sg9
I-33
sg10
I-33
sg55
I73
sg12
I-33
sg61
I83
sg64
I75
sg13
I-33
sg14
I-33
sg15
I-33
sg16
I-33
sg17
I-33
sg18
I-33
sg62
I78
sg63
I76
sg19
I-33
sg20
I-33
sg21
I-33
sg22
I-33
sg23
I-33
sg56
I81
sg24
I-33
sg25
I-33
sg26
I-33
sg27
I-33
ssI175
(dp309
g54
I67
sg3
I-37
sg4
I-37
sg57
I68
sg5
I-37
sg6
I-37
sg59
I69
sg60
I70
sg129
I112
sg7
I-37
sg8
I-37
sg9
I-37
sg10
I-37
sg55
I73
sg12
I-37
sg61
I83
sg64
I75
sg13
I-37
sg14
I-37
sg15
I-37
sg16
I-37
sg17
I-37
sg18
I-37
sg62
I78
sg63
I76
sg19
I-37
sg20
I-37
sg21
I-37
sg22
I-37
sg23
I-37
sg56
I81
sg24
I-37
sg25
I-37
sg26
I-37
sg27
I-37
ssI176
(dp310
S'DEDENT'
p311
I237
sg154
I183
sg155
I180
sg153
I179
ssI177
(dp312
g311
I-56
sg154
I-56
sg155
I-56
sg153
I-56
ssI178
(dp313
g311
I-57
sg154
I-57
sg155
I-57
sg153
I-57
ssI179
(dp314
S'COLON'
p315
I239
ssI180
(dp316
S'COLON'
p317
I240
ssI181
(dp318
g311
I-55
sg154
I-55
sg155
I-55
sg153
I-55
ssI182
(dp319
g311
I-58
sg154
I-58
sg155
I-58
sg153
I-58
ssI183
(dp320
S'COLON'
p321
I241
ssI184
(dp322
g3
I-51
sg4
I-51
sg5
I-51
sg6
I-51
sg7
I-51
sg8
I-51
sg9
I-51
sg10
I-51
sg12
I-51
sg13
I-51
sg14
I-51
sg15
I-51
sg16
I-51
sg17
I-51
sg18
I-51
sg19
I-51
sg20
I-51
sg21
I-51
sg22
I-51
sg23
I-51
sg24
I-51
sg25
I-51
sg26
I-51
sg27
I-51
ssI185
(dp323
S'INDENT'
p324
I242
ssI186
(dp325
S'DEDENT'
p326
I-136
sg54
I67
sg3
I-136
sg4
I-136
sg57
I68
sg5
I-136
sg6
I-136
sg59
I69
sg60
I70
sg129
I112
sg7
I-136
sg8
I-136
sg9
I-136
sg10
I-136
sg55
I73
sg219
I-136
sg12
I-136
sg61
I83
sg64
I75
sg13
I-136
sg14
I-136
sg15
I-136
sg16
I-136
sg17
I-136
sg18
I-136
sg62
I78
sg63
I76
sg19
I-136
sg20
I-136
sg21
I-136
sg22
I-136
sg23
I-136
sg56
I81
sg24
I-136
sg25
I-136
sg26
I-136
sg27
I-136
ssI187
(dp327
g326
I-47
sg3
I-47
sg4
I-47
sg5
I-47
sg6
I-47
sg7
I-47
sg8
I-47
sg9
I-47
sg10
I-47
sg164
I-47
sg12
I-47
sg13
I-47
sg14
I-47
sg15
I-47
sg16
I-47
sg17
I-47
sg18
I-47
sg19
I-47
sg20
I-47
sg21
I-47
sg22
I-47
sg23
I-47
sg24
I-47
sg25
I-47
sg26
I-47
sg27
I-47
ssI188
(dp328
g3
I-42
sg4
I-42
sg5
I-42
sg6
I-42
sg7
I-42
sg8
I-42
sg9
I-42
sg10
I-42
sg164
I244
sg12
I-42
sg13
I-42
sg14
I-42
sg15
I-42
sg16
I-42
sg17
I-42
sg18
I-42
sg19
I-42
sg20
I-42
sg21
I-42
sg22
I-42
sg23
I-42
sg24
I-42
sg25
I-42
sg26
I-42
sg27
I-42
ssI189
(dp329
g3
I-30
sg4
I-30
sg5
I-30
sg6
I-30
sg7
I-30
sg8
I-30
sg9
I-30
sg10
I-30
sg12
I-30
sg13
I-30
sg14
I-30
sg15
I-30
sg16
I-30
sg17
I-30
sg18
I-30
sg19
I-30
sg20
I-30
sg21
I-30
sg22
I-30
sg23
I-30
sg24
I-30
sg25
I-30
sg26
I-30
sg27
I-30
ssI190
(dp330
g54
I67
sg3
I-35
sg4
I-35
sg57
I68
sg5
I-35
sg6
I-35
sg59
I69
sg60
I70
sg129
I112
sg7
I-35
sg8
I-35
sg9
I-35
sg10
I-35
sg55
I73
sg12
I-35
sg61
I83
sg64
I75
sg13
I-35
sg14
I-35
sg15
I-35
sg16
I-35
sg17
I-35
sg18
I-35
sg62
I78
sg63
I76
sg19
I-35
sg20
I-35
sg21
I-35
sg22
I-35
sg23
I-35
sg56
I81
sg24
I-35
sg25
I-35
sg26
I-35
sg27
I-35
ssI191
(dp331
g54
I67
sg55
I73
sg56
I81
sg57
I68
sg59
I69
sg60
I70
sg64
I75
sg62
I78
sg63
I76
sS'INDENT'
p332
I246
ssI192
(dp333
g211
I247
sS'COMMA'
p334
I248
ssI193
(dp335
g211
I-156
sg54
I-156
sg3
I-156
sg4
I-156
sg57
I-156
sg5
I-156
sg6
I-156
sg59
I-156
sg60
I-156
sg133
I-156
sg7
I-156
sg8
I-156
sg9
I-156
sg152
I-156
sg10
I-156
sg55
I-156
sg153
I-156
sg12
I-156
sg64
I-156
sg63
I-156
sg13
I-156
sg14
I-156
sg15
I-156
sg16
I-156
sg154
I-156
sg17
I-156
sg155
I-156
sg18
I-156
sg132
I-156
sg62
I-156
sg134
I-156
sg19
I-156
sg20
I-156
sg21
I-156
sg137
I-156
sg22
I-156
sg23
I-156
sg56
I-156
sg24
I-156
sg131
I-156
sg25
I-156
sg26
I-156
sg27
I-156
sg136
I-156
sg135
I-156
sg157
I-156
sg158
I-156
ssI194
(dp336
g221
I-154
sg54
I-154
sg3
I-154
sg4
I-154
sg57
I-154
sg5
I-154
sg6
I-154
sg59
I-154
sg60
I-154
sg64
I-154
sg129
I-154
sg140
I-154
sg7
I-154
sg8
I-154
sg9
I-154
sg10
I-154
sg141
I-154
sg55
I-154
sg153
I-154
sg12
I-154
sg61
I-154
sg63
I-154
sg13
I-154
sg14
I-154
sg15
I-154
sg16
I-154
sg154
I-154
sg17
I-154
sg155
I-154
sg18
I-154
sg62
I-154
sg19
I-154
sg20
I-154
sg21
I-154
sg22
I-154
sg23
I-154
sg222
I-154
sg56
I-154
sg24
I-154
sg25
I-154
sg26
I-154
sg151
I-154
sg27
I-154
ssI195
(dp337
g54
I67
sg55
I73
sg56
I81
sg57
I68
sg59
I69
sg60
I70
sg61
I83
sg62
I78
sg63
I76
sg64
I75
sg129
I112
ssI196
(dp338
g54
I67
sg55
I73
sg56
I81
sg57
I68
sg59
I69
sg60
I70
sg61
I83
sg62
I78
sg63
I76
sg64
I75
sg129
I112
ssI197
(dp339
g3
I-62
sg4
I-62
sg5
I-62
sg6
I-62
sg7
I-62
sg8
I-62
sg9
I-62
sg10
I-62
sg12
I-62
sg13
I-62
sg14
I-62
sg15
I-62
sg16
I-62
sg17
I-62
sg18
I-62
sg19
I-62
sg20
I-62
sg21
I-62
sg22
I-62
sg23
I-62
sg24
I-62
sg25
I-62
sg26
I-62
sg27
I-62
ssI198
(dp340
g230
I-67
sg131
I-67
sg132
I-67
sg133
I-67
sg134
I-67
sg135
I-67
sg136
I-67
sg137
I-67
ssI199
(dp341
g54
I67
sg55
I73
sg56
I81
sg57
I68
sg59
I69
sg60
I70
sg64
I75
sg62
I78
sg63
I76
sg127
I106
ssI200
(dp342
g54
I67
sg55
I73
sg56
I81
sg57
I68
sg59
I69
sg60
I70
sg64
I75
sg62
I78
sg63
I76
sg127
I106
ssI201
(dp343
g54
I67
sg55
I73
sg56
I81
sg57
I68
sg59
I69
sg60
I70
sg64
I75
sg62
I78
sg63
I76
sg127
I106
ssI202
(dp344
g54
I67
sg55
I73
sg56
I81
sg57
I68
sg59
I69
sg60
I70
sg64
I75
sg62
I78
sg63
I76
sg127
I106
ssI203
(dp345
S'TRUE'
p346
I256
sS'FALSE'
p347
I255
sS'FLAG_OP'
p348
I257
ssI204
(dp349
S'LPAR'
p350
I258
ssI205
(dp351
S'COLON'
p352
I-97
ssI206
(dp353
g352
I-96
ssI207
(dp354
g352
I-103
ssI208
(dp355
S'LPAR'
p356
I259
ssI209
(dp357
g230
I-92
sg131
I-92
sg132
I-92
sg133
I-92
sg134
I-92
sg135
I-92
sg136
I-92
sg137
I-92
ssI210
(dp358
g352
I260
ssI211
(dp359
g352
I-95
ssI212
(dp360
g352
I-101
ssI213
(dp361
g152
I264
sg158
I262
ssI214
(dp362
g208
I268
sg209
I266
ssI215
(dp363
g3
I-121
sg4
I-121
sg5
I-121
sg6
I-121
sg7
I-121
sg8
I-121
sg9
I-121
sg10
I-121
sg12
I-121
sg13
I-121
sg14
I-121
sg15
I-121
sg16
I-121
sg17
I-121
sg18
I-121
sg19
I-121
sg20
I-121
sg21
I-121
sg22
I-121
sg23
I-121
sg24
I-121
sg25
I-121
sg26
I-121
sg27
I-121
ssI216
(dp364
g221
I-123
sg140
I-123
sg141
I-123
ssI217
(dp365
g54
I67
sg55
I73
sg56
I81
sg57
I68
sg59
I69
sg60
I70
sg61
I83
sg62
I78
sg63
I76
sg64
I75
sg129
I112
ssI218
(dp366
g54
I67
sg55
I73
sg56
I81
sg57
I68
sg59
I69
sg60
I70
sg61
I83
sg62
I78
sg63
I76
sg64
I75
sg129
I112
ssI219
(dp367
g54
I67
sg156
I227
sg56
I81
sg57
I68
sg63
I76
sg150
I149
sg59
I69
sg60
I70
sg129
I112
sg62
I78
sg55
I73
sg64
I75
sg61
I83
ssI220
(dp368
g278
I272
ssI221
(dp369
S'DEDENT'
p370
I-152
sg54
I-152
sg156
I-152
sg56
I-152
sg57
I-152
sg63
I-152
sg150
I-152
sg59
I-152
sg60
I-152
sg129
I-152
sg62
I-152
sg55
I-152
sg64
I-152
sg61
I-152
ssI222
(dp371
S'DEDENT'
p372
I-171
sg54
I-171
sg156
I-171
sg56
I-171
sg57
I-171
sg63
I-171
sg150
I-171
sg59
I-171
sg60
I-171
sg129
I-171
sg62
I-171
sg55
I-171
sg64
I-171
sg61
I-171
ssI223
(dp373
g278
I-150
sg54
I67
sg156
I227
sg56
I81
sg57
I68
sg63
I76
sg150
I149
sg59
I69
sg60
I70
sg64
I75
sg129
I112
sg62
I78
sg55
I73
sg61
I83
ssI224
(dp374
g372
I-172
sg54
I-172
sg156
I-172
sg56
I-172
sg57
I-172
sg63
I-172
sg150
I-172
sg59
I-172
sg60
I-172
sg129
I-172
sg62
I-172
sg55
I-172
sg64
I-172
sg61
I-172
ssI225
(dp375
g54
I67
sg156
I227
sg56
I81
sg57
I68
sg63
I76
sg150
I149
sg59
I69
sg60
I70
sg129
I112
sg62
I78
sg55
I73
sg64
I75
sg61
I83
ssI226
(dp376
g370
I-151
sg54
I-151
sg156
I-151
sg56
I-151
sg57
I-151
sg63
I-151
sg150
I-151
sg59
I-151
sg60
I-151
sg129
I-151
sg62
I-151
sg55
I-151
sg64
I-151
sg61
I-151
ssI227
(dp377
g54
I-173
sg156
I-173
sg56
I-173
sg57
I-173
sg63
I-173
sg150
I-173
sg59
I-173
sg60
I-173
sg129
I-173
sg62
I-173
sg55
I-173
sg64
I-173
sg61
I-173
ssI228
(dp378
S'DEDENT'
p379
I276
ssI229
(dp380
g3
I-113
sg4
I-113
sg5
I-113
sg6
I-113
sg7
I-113
sg8
I-113
sg9
I-113
sg10
I-113
sg12
I-113
sg13
I-113
sg14
I-113
sg15
I-113
sg16
I-113
sg17
I-113
sg18
I-113
sg19
I-113
sg20
I-113
sg21
I-113
sg22
I-113
sg23
I-113
sg24
I-113
sg25
I-113
sg26
I-113
sg27
I-113
ssI230
(dp381
g163
I-115
sg183
I-115
sg151
I-115
ssI231
(dp382
g54
I67
sg55
I73
sg56
I81
sg57
I68
sg59
I69
sg60
I70
sg61
I83
sg62
I78
sg63
I76
sg64
I75
sg147
I143
ssI232
(dp383
g54
I67
sg55
I73
sg56
I81
sg57
I68
sg59
I69
sg60
I70
sg61
I83
sg62
I78
sg63
I76
sg64
I75
sg129
I112
ssI233
(dp384
g54
I67
sg55
I73
sg56
I81
sg57
I68
sg59
I69
sg60
I70
sg61
I83
sg62
I78
sg63
I76
sg64
I75
sg147
I143
ssI234
(dp385
g54
I67
sg55
I73
sg56
I81
sg57
I68
sg59
I69
sg60
I70
sg61
I83
sg62
I78
sg63
I76
sg64
I75
sg129
I112
ssI235
(dp386
g3
I-105
sg4
I-105
sg5
I-105
sg6
I-105
sg7
I-105
sg8
I-105
sg9
I-105
sg10
I-105
sg12
I-105
sg13
I-105
sg14
I-105
sg15
I-105
sg16
I-105
sg17
I-105
sg18
I-105
sg19
I-105
sg20
I-105
sg21
I-105
sg22
I-105
sg23
I-105
sg24
I-105
sg25
I-105
sg26
I-105
sg27
I-105
ssI236
(dp387
g173
I-107
sg185
I-107
sg174
I-107
ssI237
(dp388
g3
I-52
sg4
I-52
sg5
I-52
sg6
I-52
sg7
I-52
sg8
I-52
sg9
I-52
sg10
I-52
sg12
I-52
sg13
I-52
sg14
I-52
sg15
I-52
sg16
I-52
sg17
I-52
sg18
I-52
sg19
I-52
sg20
I-52
sg21
I-52
sg22
I-52
sg23
I-52
sg24
I-52
sg25
I-52
sg26
I-52
sg27
I-52
ssI238
(dp389
g311
I-54
sg154
I-54
sg155
I-54
sg153
I-54
ssI239
(dp390
g54
I67
sg55
I73
sg56
I81
sg57
I68
sg59
I69
sg60
I70
sg64
I75
sg62
I78
sg63
I76
sg127
I106
ssI240
(dp391
g54
I67
sg55
I73
sg56
I81
sg57
I68
sg59
I69
sg60
I70
sg61
I83
sg62
I78
sg63
I76
sg64
I75
sg129
I112
ssI241
(dp392
g54
I67
sg55
I73
sg56
I81
sg57
I68
sg59
I69
sg60
I70
sg61
I83
sg62
I78
sg63
I76
sg64
I75
sg129
I112
ssI242
(dp393
g54
I67
sg55
I73
sg56
I81
sg57
I68
sg59
I69
sg60
I70
sg61
I83
sg62
I78
sg63
I76
sg64
I75
sg129
I112
ssI243
(dp394
g326
I-135
sg3
I-135
sg4
I-135
sg5
I-135
sg6
I-135
sg7
I-135
sg8
I-135
sg9
I-135
sg10
I-135
sg219
I-135
sg12
I-135
sg13
I-135
sg14
I-135
sg15
I-135
sg16
I-135
sg17
I-135
sg18
I-135
sg19
I-135
sg20
I-135
sg21
I-135
sg22
I-135
sg23
I-135
sg24
I-135
sg25
I-135
sg26
I-135
sg27
I-135
ssI244
(dp395
S'INDENT'
p396
I286
ssI245
(dp397
g214
I-133
sg54
I67
sg3
I-133
sg4
I-133
sg153
I-133
sg5
I-133
sg6
I-133
sg59
I69
sg60
I70
sg64
I75
sg133
I-133
sg7
I-133
sg208
I-133
sg9
I-133
sg8
I-133
sg10
I-133
sg55
I73
sg57
I68
sg12
I-133
sg209
I-133
sg157
I-133
sg13
I-133
sg14
I-133
sg15
I-133
sg16
I-133
sg154
I-133
sg63
I76
sg17
I-133
sg155
I-133
sg18
I-133
sg132
I-133
sg62
I78
sg134
I-133
sg19
I-133
sg20
I-133
sg21
I-133
sg137
I-133
sg22
I-133
sg23
I-133
sg56
I81
sg24
I-133
sg131
I-133
sg25
I-133
sg26
I-133
sg27
I-133
sg136
I-133
sg135
I-133
ssI246
(dp398
g54
I67
sg55
I73
sg56
I81
sg57
I68
sg59
I69
sg60
I70
sg64
I75
sg62
I78
sg63
I76
ssI247
(dp399
g149
I-132
sg3
I-132
sg4
I-132
sg153
I-132
sg5
I-132
sg6
I-132
sg133
I-132
sg7
I-132
sg8
I-132
sg9
I-132
sg208
I-132
sg10
I-132
sg12
I-132
sg209
I-132
sg13
I-132
sg14
I-132
sg15
I-132
sg16
I-132
sg154
I-132
sg17
I-132
sg155
I-132
sg18
I-132
sg132
I-132
sg134
I-132
sg19
I-132
sg20
I-132
sg21
I-132
sg137
I-132
sg22
I-132
sg23
I-132
sg24
I-132
sg131
I-132
sg25
I-132
sg26
I-132
sg27
I-132
sg136
I-132
sg135
I-132
ssI248
(dp400
g54
I67
sg55
I73
sg56
I81
sg57
I68
sg59
I69
sg60
I70
sg64
I75
sg62
I78
sg63
I76
ssI249
(dp401
g54
I67
sg222
I-89
sg56
I81
sg57
I68
sg63
I76
sg59
I69
sg60
I70
sg129
I112
sg62
I78
sg55
I73
sg64
I75
sg61
I83
ssI250
(dp402
g54
I67
sg256
I-83
sg56
I81
sg57
I68
sg63
I76
sg59
I69
sg60
I70
sg129
I112
sg62
I78
sg55
I73
sg64
I75
sg61
I83
ssI251
(dp403
g149
I-76
sg131
I-76
sg132
I-76
sg133
I-76
sg134
I-76
sg135
I-76
sg136
I-76
sg137
I-76
ssI252
(dp404
g230
I-78
sg131
I-78
sg132
I-78
sg133
I-78
sg134
I-78
sg135
I-78
sg136
I-78
sg137
I-78
ssI253
(dp405
g230
I-79
sg131
I-79
sg132
I-79
sg133
I-79
sg134
I-79
sg135
I-79
sg136
I-79
sg137
I-79
ssI254
(dp406
g230
I-77
sg131
I-77
sg132
I-77
sg133
I-77
sg134
I-77
sg135
I-77
sg136
I-77
sg137
I-77
ssI255
(dp407
g352
I-102
ssI256
(dp408
g352
I-104
ssI257
(dp409
S'LPAR'
p410
I288
ssI258
(dp411
g193
I169
ssI259
(dp412
g193
I169
ssI260
(dp413
S'INDENT'
p414
I291
ssI261
(dp415
S'DEDENT'
p416
I-88
sg152
I-88
sg158
I-88
ssI262
(dp417
S'COLON'
p418
I292
ssI263
(dp419
g416
I293
sg152
I264
sg158
I262
ssI264
(dp420
S'COLON'
p421
I295
ssI265
(dp422
g214
I-82
sg208
I-82
sg209
I-82
ssI266
(dp423
S'COLON'
p424
I296
ssI267
(dp425
g214
I297
sg208
I268
sg209
I266
ssI268
(dp426
S'COLON'
p427
I299
ssI269
(dp428
g221
I-127
sg54
I67
sg55
I73
sg56
I81
sg57
I68
sg59
I69
sg60
I70
sg64
I75
sg129
I112
sg62
I78
sg63
I76
sg140
I-127
sg141
I-127
sg61
I83
ssI270
(dp429
g221
I-128
sg54
I67
sg55
I73
sg56
I81
sg57
I68
sg59
I69
sg60
I70
sg64
I75
sg129
I112
sg62
I78
sg63
I76
sg140
I-128
sg141
I-128
sg61
I83
ssI271
(dp430
g372
I300
ssI272
(dp431
g3
I-142
sg4
I-142
sg5
I-142
sg6
I-142
sg7
I-142
sg8
I-142
sg9
I-142
sg10
I-142
sg12
I-142
sg13
I-142
sg14
I-142
sg15
I-142
sg16
I-142
sg17
I-142
sg18
I-142
sg19
I-142
sg20
I-142
sg21
I-142
sg22
I-142
sg23
I-142
sg24
I-142
sg25
I-142
sg26
I-142
sg27
I-142
ssI273
(dp432
g278
I-149
ssI274
(dp433
g370
I302
ssI275
(dp434
g278
I-147
sg54
I-147
sg156
I-147
sg56
I-147
sg57
I-147
sg63
I-147
sg150
I-147
sg59
I-147
sg60
I-147
sg129
I-147
sg62
I-147
sg55
I-147
sg64
I-147
sg61
I-147
ssI276
(dp435
g3
I-141
sg4
I-141
sg5
I-141
sg6
I-141
sg7
I-141
sg8
I-141
sg9
I-141
sg10
I-141
sg12
I-141
sg13
I-141
sg14
I-141
sg15
I-141
sg16
I-141
sg17
I-141
sg18
I-141
sg19
I-141
sg20
I-141
sg21
I-141
sg22
I-141
sg23
I-141
sg24
I-141
sg25
I-141
sg26
I-141
sg27
I-141
ssI277
(dp436
g163
I-119
sg183
I-119
sg151
I-119
ssI278
(dp437
g163
I-120
sg54
I67
sg55
I73
sg56
I81
sg57
I68
sg183
I-120
sg64
I75
sg59
I69
sg60
I70
sg151
I-120
sg129
I112
sg62
I78
sg63
I76
sg61
I83
ssI279
(dp438
g173
I-111
sg185
I-111
sg174
I-111
ssI280
(dp439
g173
I-112
sg54
I67
sg55
I73
sg56
I81
sg57
I68
sg185
I-112
sg64
I75
sg59
I69
sg60
I70
sg174
I-112
sg129
I112
sg62
I78
sg63
I76
sg61
I83
ssI281
(dp440
g311
I-61
sg154
I-61
sg155
I-61
sg153
I-61
ssI282
(dp441
g311
I-59
sg154
I-59
sg55
I73
sg56
I81
sg153
I-59
sg57
I68
sg155
I-59
sg59
I69
sg60
I70
sg64
I75
sg61
I83
sg62
I78
sg63
I76
sg129
I112
sg54
I67
ssI283
(dp442
g311
I-60
sg154
I-60
sg55
I73
sg56
I81
sg153
I-60
sg57
I68
sg155
I-60
sg59
I69
sg60
I70
sg64
I75
sg61
I83
sg62
I78
sg63
I76
sg129
I112
sg54
I67
ssI284
(dp443
g326
I303
ssI285
(dp444
g326
I-46
sg219
I304
ssI286
(dp445
g54
I67
sg55
I73
sg56
I81
sg57
I68
sg59
I69
sg60
I70
sg61
I83
sg62
I78
sg63
I76
sg64
I75
sg129
I112
ssI287
(dp446
S'DEDENT'
p447
I306
sg334
I248
ssI288
(dp448
g193
I169
ssI289
(dp449
S'RPAR'
p450
I308
ssI290
(dp451
S'RPAR'
p452
I309
ssI291
(dp453
g131
I114
sg132
I126
sg133
I115
sg134
I127
sg135
I125
sg136
I123
sg137
I128
ssI292
(dp454
g54
I67
sg55
I73
sg56
I81
sg57
I68
sg59
I69
sg60
I70
sg64
I75
sg62
I78
sg63
I76
sg127
I106
ssI293
(dp455
g230
I-86
sg131
I-86
sg132
I-86
sg133
I-86
sg134
I-86
sg135
I-86
sg136
I-86
sg137
I-86
ssI294
(dp456
g416
I-87
sg152
I-87
sg158
I-87
ssI295
(dp457
g54
I67
sg55
I73
sg56
I81
sg57
I68
sg59
I69
sg60
I70
sg64
I75
sg62
I78
sg63
I76
sg127
I106
ssI296
(dp458
g54
I67
sg55
I73
sg56
I81
sg57
I68
sg59
I69
sg60
I70
sg64
I75
sg62
I78
sg63
I76
sg127
I106
ssI297
(dp459
S'DEDENT'
p460
I-80
sg131
I-80
sg132
I-80
sg133
I-80
sg134
I-80
sg135
I-80
sg136
I-80
sg137
I-80
ssI298
(dp461
g214
I-81
sg208
I-81
sg209
I-81
ssI299
(dp462
g54
I67
sg55
I73
sg56
I81
sg57
I68
sg59
I69
sg60
I70
sg64
I75
sg62
I78
sg63
I76
sg127
I106
ssI300
(dp463
g3
I-143
sg4
I-143
sg5
I-143
sg6
I-143
sg7
I-143
sg8
I-143
sg9
I-143
sg10
I-143
sg12
I-143
sg13
I-143
sg14
I-143
sg15
I-143
sg16
I-143
sg17
I-143
sg18
I-143
sg19
I-143
sg20
I-143
sg21
I-143
sg22
I-143
sg23
I-143
sg24
I-143
sg25
I-143
sg26
I-143
sg27
I-143
ssI301
(dp464
g278
I-148
sg54
I-148
sg156
I-148
sg56
I-148
sg57
I-148
sg63
I-148
sg150
I-148
sg59
I-148
sg60
I-148
sg129
I-148
sg62
I-148
sg55
I-148
sg64
I-148
sg61
I-148
ssI302
(dp465
g278
I-174
sg54
I-174
sg156
I-174
sg56
I-174
sg57
I-174
sg63
I-174
sg150
I-174
sg59
I-174
sg60
I-174
sg129
I-174
sg62
I-174
sg55
I-174
sg64
I-174
sg61
I-174
ssI303
(dp466
g3
I-43
sg4
I-43
sg5
I-43
sg6
I-43
sg7
I-43
sg8
I-43
sg9
I-43
sg10
I-43
sg12
I-43
sg13
I-43
sg14
I-43
sg15
I-43
sg16
I-43
sg17
I-43
sg18
I-43
sg19
I-43
sg20
I-43
sg21
I-43
sg22
I-43
sg23
I-43
sg24
I-43
sg25
I-43
sg26
I-43
sg27
I-43
ssI304
(dp467
g54
I67
sg55
I73
sg56
I81
sg57
I68
sg59
I69
sg60
I70
sg61
I83
sg62
I78
sg63
I76
sg64
I75
sg129
I112
ssI305
(dp468
g218
I316
ssI306
(dp469
g149
I-131
sg3
I-131
sg4
I-131
sg153
I-131
sg5
I-131
sg6
I-131
sg133
I-131
sg7
I-131
sg8
I-131
sg9
I-131
sg208
I-131
sg10
I-131
sg12
I-131
sg209
I-131
sg13
I-131
sg14
I-131
sg15
I-131
sg16
I-131
sg154
I-131
sg17
I-131
sg155
I-131
sg18
I-131
sg132
I-131
sg134
I-131
sg19
I-131
sg20
I-131
sg21
I-131
sg137
I-131
sg22
I-131
sg23
I-131
sg24
I-131
sg131
I-131
sg25
I-131
sg26
I-131
sg27
I-131
sg136
I-131
sg135
I-131
ssI307
(dp470
g303
I317
ssI308
(dp471
g352
I-99
ssI309
(dp472
g352
I-98
ssI310
(dp473
g460
I318
sg131
I114
sg132
I126
sg133
I115
sg134
I127
sg135
I125
sg136
I123
sg137
I128
ssI311
(dp474
g416
I-90
sg152
I-90
sg158
I-90
ssI312
(dp475
g416
I-91
sg152
I-91
sg158
I-91
ssI313
(dp476
g214
I-84
sg208
I-84
sg209
I-84
ssI314
(dp477
g214
I-85
sg208
I-85
sg209
I-85
ssI315
(dp478
g326
I-45
ssI316
(dp479
g3
I-44
sg4
I-44
sg5
I-44
sg6
I-44
sg7
I-44
sg8
I-44
sg9
I-44
sg10
I-44
sg12
I-44
sg13
I-44
sg14
I-44
sg15
I-44
sg16
I-44
sg17
I-44
sg18
I-44
sg19
I-44
sg20
I-44
sg21
I-44
sg22
I-44
sg23
I-44
sg24
I-44
sg25
I-44
sg26
I-44
sg27
I-44
ssI317
(dp480
g352
I-100
ssI318
(dp481
g230
I-93
sg131
I-93
sS'ELSE'
p482
I319
sg132
I-93
sg133
I-93
sg134
I-93
sg135
I-93
sg136
I-93
sg137
I-93
ssI319
(dp483
S'COLON'
p484
I320
ssI320
(dp485
S'INDENT'
p486
I321
ssI321
(dp487
g131
I114
sg132
I126
sg133
I115
sg134
I127
sg135
I125
sg136
I123
sg137
I128
ssI322
(dp488
g230
I323
sg131
I114
sg132
I126
sg133
I115
sg134
I127
sg135
I125
sg136
I123
sg137
I128
ssI323
(dp489
g230
I-94
sg131
I-94
sg132
I-94
sg133
I-94
sg134
I-94
sg135
I-94
sg136
I-94
sg137
I-94
ss.(dp1
I0
(dp2
S'meta_license_stmt'
p3
I3
sS'meta_maintainer_email_stmt'
p4
I51
sS'library_declaration'
p5
I5
sS'exec_decl'
p6
I7
sS'library'
p7
I8
sS'meta_author_email_stmt'
p8
I9
sS'meta_url_stmt'
p9
I11
sS'meta_classifiers_stmt'
p10
I12
sS'data_files'
p11
I14
sS'description_decl'
p12
I17
sS'meta_download_url_stmt'
p13
I44
sS'path_declaration'
p14
I19
sS'meta_subento_stmt'
p15
I22
sS'meta_maintainer_stmt'
p16
I23
sS'empty'
p17
I26
sS'exec'
p18
I31
sS'meta_author_stmt'
p19
I34
sS'stmt'
p20
I35
sS'meta_platforms_stmt'
p21
I37
sS'meta_stmt'
p22
I38
sS'flag'
p23
I39
sS'meta_description_stmt'
p24
I40
sS'meta_hook_file_stmt'
p25
I41
sS'path'
p26
I42
sS'flag_declaration'
p27
I18
sS'data_files_declaration'
p28
I45
sS'stmt_list'
p29
I46
sS'dummy'
p30
I47
sS'meta_config_py_stmt'
p31
I49
sS'meta_version_stmt'
p32
I50
sS'extra_source_files'
p33
I4
sS'meta_name_stmt'
p34
I52
sS'meta_summary_stmt'
p35
I55
ssI1
(dp36
sI2
(dp37
sI3
(dp38
sI4
(dp39
sI5
(dp40
sI6
(dp41
sI7
(dp42
sI8
(dp43
sI9
(dp44
sI10
(dp45
sI11
(dp46
sI12
(dp47
sI13
(dp48
sI14
(dp49
sI15
(dp50
sI16
(dp51
sI17
(dp52
S'anytoken_no_comma'
p53
I71
sS'literal_no_space'
p54
I80
sS'single_line_newline'
p55
I82
sS'single_line'
p56
I77
sS'single_line_value'
p57
I79
ssI18
(dp58
sI19
(dp59
sI20
(dp60
sI21
(dp61
sI22
(dp62
sI23
(dp63
sI24
(dp64
sI25
(dp65
sI26
(dp66
sI27
(dp67
sI28
(dp68
sI29
(dp69
sI30
(dp70
sI31
(dp71
sI32
(dp72
sI33
(dp73
sI34
(dp74
sI35
(dp75
sI36
(dp76
sI37
(dp77
sI38
(dp78
sI39
(dp79
sI40
(dp80
sI41
(dp81
sI42
(dp82
sI43
(dp83
sI44
(dp84
sI45
(dp85
sI46
(dp86
g3
I3
sg4
I51
sg5
I5
sg6
I7
sg7
I8
sg8
I9
sg9
I11
sg10
I12
sg11
I14
sg12
I17
sg13
I44
sg14
I19
sg15
I22
sg16
I23
sg18
I31
sg19
I34
sg20
I98
sg21
I37
sg22
I38
sg23
I39
sg24
I40
sg25
I41
sg26
I42
sg27
I18
sg28
I45
sg30
I47
sg31
I49
sg32
I50
sg33
I4
sg34
I52
sg35
I55
ssI47
(dp87
sI48
(dp88
sI49
(dp89
sI50
(dp90
sI51
(dp91
sI52
(dp92
sI53
(dp93
sI54
(dp94
sI55
(dp95
sI56
(dp96
sI57
(dp97
sI58
(dp98
S'anytoken_no_comma'
p99
I105
sS'indented_comma_list'
p100
I109
sS'comma_words'
p101
I104
sS'comma_list'
p102
I108
sS'anyword_comma_list'
p103
I107
ssI59
(dp104
g53
I71
sS'literal_no_space'
p105
I110
sS'literal'
p106
I111
sS'anyword'
p107
I113
ssI60
(dp108
S'packages_stmt'
p109
I118
sS'build_requires_stmt'
p110
I124
sS'conditional_stmt'
p111
I129
sS'extension_decl'
p112
I131
sS'install_requires_stmt'
p113
I119
sS'extension_stmt'
p114
I120
sS'compiled_library_decl'
p115
I130
sS'modules_stmt'
p116
I121
sS'library_stmt'
p117
I116
sS'library_stmts'
p118
I122
sS'compiled_library_stmt'
p119
I117
ssI61
(dp120
g53
I71
sg105
I110
sg106
I111
sS'anyword'
p121
I132
ssI62
(dp122
S'function'
p123
I133
sS'exec_stmts'
p124
I134
sS'module'
p125
I135
sS'exec_stmt'
p126
I136
ssI63
(dp127
S'version'
p128
I140
ssI64
(dp129
g53
I71
sg105
I110
sg106
I111
sS'anyword'
p130
I141
ssI65
(dp131
g53
I71
sg105
I110
sg106
I111
sS'anyword'
p132
I142
ssI66
(dp133
g53
I71
sg54
I80
sg56
I77
sS'single_line_value'
p134
I144
ssI67
(dp135
sI68
(dp136
sI69
(dp137
sI70
(dp138
sI71
(dp139
sI72
(dp140
g53
I71
sg54
I80
sg56
I146
ssI73
(dp141
sI74
(dp142
sI75
(dp143
sI76
(dp144
sI77
(dp145
g53
I71
sg105
I110
sS'literal'
p146
I148
ssI78
(dp147
sI79
(dp148
S'newline'
p149
I150
ssI80
(dp150
sI81
(dp151
sI82
(dp152
sI83
(dp153
sI84
(dp154
S'flag_stmts'
p155
I152
sS'flag_description'
p156
I153
sS'flag_stmt'
p157
I156
sS'flag_default'
p158
I154
ssI85
(dp159
S'path_stmts'
p160
I163
sS'path_stmt'
p161
I159
sS'path_description'
p162
I161
sS'path_default'
p163
I162
ssI86
(dp164
g53
I71
sg105
I110
sg106
I111
sS'anyword'
p165
I164
ssI87
(dp166
g53
I71
sg54
I80
sg56
I77
sS'single_line_value'
p167
I165
ssI88
(dp168
g53
I71
sg105
I110
sg106
I111
sS'anyword'
p169
I166
ssI89
(dp170
sI90
(dp171
g99
I105
sg100
I109
sg101
I104
sS'comma_list'
p172
I167
sg103
I107
ssI91
(dp173
g53
I71
sg54
I80
sg56
I77
sS'single_line_value'
p174
I168
ssI92
(dp175
S'library_name'
p176
I171
sS'word'
p177
I170
ssI93
(dp178
g53
I71
sg105
I110
sg106
I111
sS'anyword'
p179
I172
ssI94
(dp180
S'word'
p181
I173
ssI95
(dp182
g53
I71
sg105
I110
sg106
I111
sS'anyword'
p183
I174
ssI96
(dp184
g53
I71
sg105
I110
sg106
I111
sS'anyword'
p185
I175
ssI97
(dp186
S'data_files_stmts'
p187
I176
sS'data_files_target'
p188
I177
sS'data_files_files'
p189
I178
sS'data_files_stmt'
p190
I181
sS'data_files_srcdir'
p191
I182
ssI98
(dp192
sI99
(dp193
g99
I105
sg100
I109
sg101
I104
sS'comma_list'
p194
I184
sg103
I107
ssI100
(dp195
g53
I71
sg105
I110
sS'literal'
p196
I186
sS'literal_line'
p197
I187
sS'classifier'
p198
I188
ssI101
(dp199
sI102
(dp200
sI103
(dp201
g53
I71
sg105
I110
sg106
I111
sS'anyword'
p202
I190
ssI104
(dp203
sI105
(dp204
sI106
(dp205
g99
I105
sS'comma_words'
p206
I192
sg103
I107
ssI107
(dp207
g99
I193
ssI108
(dp208
sI109
(dp209
sI110
(dp210
sI111
(dp211
sI112
(dp212
sI113
(dp213
g53
I71
sg105
I110
sg106
I194
ssI114
(dp214
sI115
(dp215
sI116
(dp216
sI117
(dp217
sI118
(dp218
sI119
(dp219
sI120
(dp220
sI121
(dp221
sI122
(dp222
g109
I118
sg110
I124
sg111
I129
sg112
I131
sg113
I119
sg114
I120
sg115
I130
sg116
I121
sg117
I198
sg119
I117
ssI123
(dp223
sI124
(dp224
sI125
(dp225
sI126
(dp226
sI127
(dp227
sI128
(dp228
S'test'
p229
I210
sS'bool'
p230
I211
sS'os_var'
p231
I206
sS'flag_var'
p232
I205
ssI129
(dp233
sI130
(dp234
sI131
(dp235
sI132
(dp236
g53
I71
sg105
I110
sg106
I194
ssI133
(dp237
sI134
(dp238
g123
I133
sg126
I216
sg125
I135
ssI135
(dp239
sI136
(dp240
sI137
(dp241
sI138
(dp242
sI139
(dp243
sI140
(dp244
sI141
(dp245
g53
I71
sg105
I110
sg106
I194
ssI142
(dp246
g53
I71
sg105
I110
sg106
I194
ssI143
(dp247
g53
I71
sg54
I80
sg56
I146
ssI144
(dp248
sI145
(dp249
sI146
(dp250
g53
I71
sg105
I110
sg146
I148
ssI147
(dp251
S'multi_stmts'
p252
I220
sS'multi_stmt'
p253
I223
sS'indent'
p254
I225
sS'multi_literal'
p255
I221
sS'newline'
p256
I224
sg105
I110
sg53
I71
sS'literal'
p257
I222
sS'indented_block'
p258
I226
ssI148
(dp259
sI149
(dp260
sI150
(dp261
sI151
(dp262
S'multi_stmts'
p263
I228
sg253
I223
sg254
I225
sg255
I221
sg256
I224
sg105
I110
sg53
I71
sg257
I222
sg258
I226
ssI152
(dp264
g156
I153
sg157
I230
sg158
I154
ssI153
(dp265
sI154
(dp266
sI155
(dp267
sI156
(dp268
sI157
(dp269
sI158
(dp270
sI159
(dp271
sI160
(dp272
sI161
(dp273
sI162
(dp274
sI163
(dp275
g161
I236
sg162
I161
sg163
I162
ssI164
(dp276
g53
I71
sg105
I110
sg106
I194
ssI165
(dp277
sI166
(dp278
g53
I71
sg105
I110
sg106
I194
ssI167
(dp279
sI168
(dp280
sI169
(dp281
sI170
(dp282
sI171
(dp283
sI172
(dp284
g53
I71
sg105
I110
sg106
I194
ssI173
(dp285
sI174
(dp286
g53
I71
sg105
I110
sg106
I194
ssI175
(dp287
g53
I71
sg105
I110
sg106
I194
ssI176
(dp288
g189
I178
sg188
I177
sg190
I238
sg191
I182
ssI177
(dp289
sI178
(dp290
sI179
(dp291
sI180
(dp292
sI181
(dp293
sI182
(dp294
sI183
(dp295
sI184
(dp296
sI185
(dp297
sI186
(dp298
g53
I71
sg105
I110
sg196
I186
sS'literal_line'
p299
I243
ssI187
(dp300
sI188
(dp301
sI189
(dp302
sI190
(dp303
g53
I71
sg105
I110
sg106
I194
ssI191
(dp304
g99
I105
sg103
I245
ssI192
(dp305
sI193
(dp306
sI194
(dp307
sI195
(dp308
g53
I71
sg105
I110
sg106
I111
sS'anyword'
p309
I249
ssI196
(dp310
g53
I71
sg105
I110
sg106
I111
sS'anyword'
p311
I250
ssI197
(dp312
sI198
(dp313
sI199
(dp314
g99
I105
sg100
I109
sg101
I104
sS'comma_list'
p315
I251
sg103
I107
ssI200
(dp316
g99
I105
sg100
I109
sg101
I104
sS'comma_list'
p317
I252
sg103
I107
ssI201
(dp318
g99
I105
sg100
I109
sg101
I104
sS'comma_list'
p319
I253
sg103
I107
ssI202
(dp320
g99
I105
sg100
I109
sg101
I104
sS'comma_list'
p321
I254
sg103
I107
ssI203
(dp322
sI204
(dp323
sI205
(dp324
sI206
(dp325
sI207
(dp326
sI208
(dp327
sI209
(dp328
sI210
(dp329
sI211
(dp330
sI212
(dp331
sI213
(dp332
S'compiled_library_field_stmts'
p333
I263
sS'compiled_library_field_stmt'
p334
I261
ssI214
(dp335
S'extension_field_stmts'
p336
I267
sS'extension_field_stmt'
p337
I265
ssI215
(dp338
sI216
(dp339
sI217
(dp340
g53
I71
sg105
I110
sg106
I111
sS'anyword'
p341
I269
ssI218
(dp342
g53
I71
sg105
I110
sg106
I111
sS'anyword'
p343
I270
ssI219
(dp344
S'multi_stmts'
p345
I271
sg253
I223
sg254
I225
sg255
I221
sg256
I224
sg105
I110
sg53
I71
sg257
I222
sg258
I226
ssI220
(dp346
sI221
(dp347
sI222
(dp348
sI223
(dp349
S'multi_stmts'
p350
I273
sg253
I223
sg254
I225
sg255
I221
sg256
I224
sg105
I110
sg53
I71
sg257
I222
sg258
I226
ssI224
(dp351
sI225
(dp352
S'multi_stmts'
p353
I274
sg253
I223
sg254
I225
sg255
I221
sg256
I224
sS'indented_block_value'
p354
I275
sg53
I71
sg105
I110
sg257
I222
sg258
I226
ssI226
(dp355
sI227
(dp356
sI228
(dp357
sI229
(dp358
sI230
(dp359
sI231
(dp360
g53
I71
sg54
I80
sg56
I77
sS'single_line_value'
p361
I277
ssI232
(dp362
g53
I71
sg105
I110
sg106
I111
sS'anyword'
p363
I278
ssI233
(dp364
g53
I71
sg54
I80
sg56
I77
sS'single_line_value'
p365
I279
ssI234
(dp366
g53
I71
sg105
I110
sg106
I111
sS'anyword'
p367
I280
ssI235
(dp368
sI236
(dp369
sI237
(dp370
sI238
(dp371
sI239
(dp372
g99
I105
sg100
I109
sg101
I104
sS'comma_list'
p373
I281
sg103
I107
ssI240
(dp374
g53
I71
sg105
I110
sg106
I111
sS'anyword'
p375
I282
ssI241
(dp376
g53
I71
sg105
I110
sg106
I111
sS'anyword'
p377
I283
ssI242
(dp378
g105
I110
sg197
I187
sg53
I71
sg196
I186
sS'classifiers_list'
p379
I284
sS'classifier'
p380
I285
ssI243
(dp381
sI244
(dp382
sI245
(dp383
g99
I193
ssI246
(dp384
g99
I105
sS'comma_words'
p385
I287
sg103
I107
ssI247
(dp386
sI248
(dp387
g99
I105
sg103
I245
ssI249
(dp388
g53
I71
sg105
I110
sg106
I194
ssI250
(dp389
g53
I71
sg105
I110
sg106
I194
ssI251
(dp390
sI252
(dp391
sI253
(dp392
sI254
(dp393
sI255
(dp394
sI256
(dp395
sI257
(dp396
sI258
(dp397
S'word'
p398
I289
ssI259
(dp399
S'word'
p400
I290
ssI260
(dp401
sI261
(dp402
sI262
(dp403
sI263
(dp404
g334
I294
ssI264
(dp405
sI265
(dp406
sI266
(dp407
sI267
(dp408
g337
I298
ssI268
(dp409
sI269
(dp410
g53
I71
sg105
I110
sg106
I194
ssI270
(dp411
g53
I71
sg105
I110
sg106
I194
ssI271
(dp412
sI272
(dp413
sI273
(dp414
sI274
(dp415
S'dedent'
p416
I301
ssI275
(dp417
sI276
(dp418
sI277
(dp419
sI278
(dp420
g53
I71
sg105
I110
sg106
I194
ssI279
(dp421
sI280
(dp422
g53
I71
sg105
I110
sg106
I194
ssI281
(dp423
sI282
(dp424
g53
I71
sg105
I110
sg106
I194
ssI283
(dp425
g53
I71
sg105
I110
sg106
I194
ssI284
(dp426
sI285
(dp427
sI286
(dp428
g105
I110
sg197
I187
sg53
I71
sg196
I186
sS'classifiers_list'
p429
I305
sS'classifier'
p430
I285
ssI287
(dp431
sI288
(dp432
S'word'
p433
I307
ssI289
(dp434
sI290
(dp435
sI291
(dp436
g109
I118
sg110
I124
sg111
I129
sg112
I131
sg113
I119
sg114
I120
sg115
I130
sg116
I121
sg117
I116
sS'library_stmts'
p437
I310
sg119
I117
ssI292
(dp438
g99
I105
sg100
I109
sg101
I104
sS'comma_list'
p439
I311
sg103
I107
ssI293
(dp440
sI294
(dp441
sI295
(dp442
g99
I105
sg100
I109
sg101
I104
sS'comma_list'
p443
I312
sg103
I107
ssI296
(dp444
g99
I105
sg100
I109
sg101
I104
sS'comma_list'
p445
I313
sg103
I107
ssI297
(dp446
sI298
(dp447
sI299
(dp448
g99
I105
sg100
I109
sg101
I104
sS'comma_list'
p449
I314
sg103
I107
ssI300
(dp450
sI301
(dp451
sI302
(dp452
sI303
(dp453
sI304
(dp454
g105
I110
sg197
I187
sg53
I71
sg196
I186
sS'classifiers_list'
p455
I315
sg380
I285
ssI305
(dp456
sI306
(dp457
sI307
(dp458
sI308
(dp459
sI309
(dp460
sI310
(dp461
g109
I118
sg110
I124
sg111
I129
sg112
I131
sg113
I119
sg114
I120
sg115
I130
sg116
I121
sg117
I198
sg119
I117
ssI311
(dp462
sI312
(dp463
sI313
(dp464
sI314
(dp465
sI315
(dp466
sI316
(dp467
sI317
(dp468
sI318
(dp469
sI319
(dp470
sI320
(dp471
sI321
(dp472
g109
I118
sg110
I124
sg111
I129
sg112
I131
sg113
I119
sg114
I120
sg115
I130
sg116
I121
sg117
I116
sS'library_stmts'
p473
I322
sg119
I117
ssI322
(dp474
g109
I118
sg110
I124
sg111
I129
sg112
I131
sg113
I119
sg114
I120
sg115
I130
sg116
I121
sg117
I198
sg119
I117
ssI323
(dp475
s.(lp1
(S"S' -> stmt_list"
p2
S"S'"
p3
I1
NNNtp4
a(S'stmt_list -> stmt_list stmt'
p5
S'stmt_list'
p6
I2
S'p_stmt_list'
p7
S'/Users/david/src/projects/bento/bento-git/bento/core/parser/parser.py'
p8
I62
tp9
a(S'stmt_list -> stmt'
p10
S'stmt_list'
p11
I1
S'p_stmt_list_term'
p12
S'/Users/david/src/projects/bento/bento-git/bento/core/parser/parser.py'
p13
I68
tp14
a(S'stmt_list -> empty'
p15
S'stmt_list'
p16
I1
S'p_stmt_list_empty'
p17
S'/Users/david/src/projects/bento/bento-git/bento/core/parser/parser.py'
p18
I72
tp19
a(S'stmt_list -> NEWLINE'
p20
S'stmt_list'
p21
I1
S'p_stmt_list_newline'
p22
S'/Users/david/src/projects/bento/bento-git/bento/core/parser/parser.py'
p23
I76
tp24
a(S'stmt -> meta_stmt'
p25
S'stmt'
p26
I1
S'p_stmt'
p27
S'/Users/david/src/projects/bento/bento-git/bento/core/parser/parser.py'
p28
I80
tp29
a(S'stmt -> library'
p30
g26
I1
g27
g28
I81
tp31
a(S'stmt -> exec'
p32
g26
I1
g27
g28
I82
tp33
a(S'stmt -> path'
p34
g26
I1
g27
g28
I83
tp35
a(S'stmt -> flag'
p36
g26
I1
g27
g28
I84
tp37
a(S'stmt -> extra_source_files'
p38
g26
I1
g27
g28
I85
tp39
a(S'stmt -> data_files'
p40
g26
I1
g27
g28
I86
tp41
a(S'stmt -> dummy'
p42
g26
I1
g27
g28
I87
tp43
a(S'empty -> <empty>'
p44
S'empty'
p45
I0
S'p_empty'
p46
S'/Users/david/src/projects/bento/bento-git/bento/core/parser/parser.py'
p47
I92
tp48
a(S'meta_stmt -> meta_name_stmt'
p49
S'meta_stmt'
p50
I1
S'p_meta_stmt'
p51
S'/Users/david/src/projects/bento/bento-git/bento/core/parser/parser.py'
p52
I99
tp53
a(S'meta_stmt -> meta_summary_stmt'
p54
g50
I1
g51
g52
I100
tp55
a(S'meta_stmt -> meta_description_stmt'
p56
g50
I1
g51
g52
I101
tp57
a(S'meta_stmt -> meta_version_stmt'
p58
g50
I1
g51
g52
I102
tp59
a(S'meta_stmt -> meta_url_stmt'
p60
g50
I1
g51
g52
I103
tp61
a(S'meta_stmt -> meta_download_url_stmt'
p62
g50
I1
g51
g52
I104
tp63
a(S'meta_stmt -> meta_author_stmt'
p64
g50
I1
g51
g52
I105
tp65
a(S'meta_stmt -> meta_author_email_stmt'
p66
g50
I1
g51
g52
I106
tp67
a(S'meta_stmt -> meta_maintainer_stmt'
p68
g50
I1
g51
g52
I107
tp69
a(S'meta_stmt -> meta_maintainer_email_stmt'
p70
g50
I1
g51
g52
I108
tp71
a(S'meta_stmt -> meta_license_stmt'
p72
g50
I1
g51
g52
I109
tp73
a(S'meta_stmt -> meta_platforms_stmt'
p74
g50
I1
g51
g52
I110
tp75
a(S'meta_stmt -> meta_classifiers_stmt'
p76
g50
I1
g51
g52
I111
tp77
a(S'meta_stmt -> meta_hook_file_stmt'
p78
g50
I1
g51
g52
I112
tp79
a(S'meta_stmt -> meta_config_py_stmt'
p80
g50
I1
g51
g52
I113
tp81
a(S'meta_stmt -> meta_subento_stmt'
p82
g50
I1
g51
g52
I114
tp83
a(S'meta_name_stmt -> NAME_ID COLON WORD'
p84
S'meta_name_stmt'
p85
I3
S'p_meta_name_stmt'
p86
S'/Users/david/src/projects/bento/bento-git/bento/core/parser/parser.py'
p87
I119
tp88
a(S'meta_summary_stmt -> SUMMARY_ID COLON single_line_value'
p89
S'meta_summary_stmt'
p90
I3
S'p_meta_summary_stmt'
p91
S'/Users/david/src/projects/bento/bento-git/bento/core/parser/parser.py'
p92
I124
tp93
a(S'meta_url_stmt -> URL_ID COLON anyword'
p94
S'meta_url_stmt'
p95
I3
S'p_meta_url_stmt'
p96
S'/Users/david/src/projects/bento/bento-git/bento/core/parser/parser.py'
p97
I129
tp98
a(S'meta_download_url_stmt -> DOWNLOAD_URL_ID COLON anyword'
p99
S'meta_download_url_stmt'
p100
I3
S'p_meta_download_url_stmt'
p101
S'/Users/david/src/projects/bento/bento-git/bento/core/parser/parser.py'
p102
I134
tp103
a(S'meta_author_stmt -> AUTHOR_ID COLON single_line_value'
p104
S'meta_author_stmt'
p105
I3
S'p_meta_author_stmt'
p106
S'/Users/david/src/projects/bento/bento-git/bento/core/parser/parser.py'
p107
I139
tp108
a(S'meta_author_email_stmt -> AUTHOR_EMAIL_ID COLON anyword'
p109
S'meta_author_email_stmt'
p110
I3
S'p_meta_author_email_stmt'
p111
S'/Users/david/src/projects/bento/bento-git/bento/core/parser/parser.py'
p112
I144
tp113
a(S'meta_maintainer_stmt -> MAINTAINER_ID COLON single_line_value'
p114
S'meta_maintainer_stmt'
p115
I3
S'p_meta_maintainer_stmt'
p116
S'/Users/david/src/projects/bento/bento-git/bento/core/parser/parser.py'
p117
I149
tp118
a(S'meta_maintainer_email_stmt -> MAINTAINER_EMAIL_ID COLON anyword'
p119
S'meta_maintainer_email_stmt'
p120
I3
S'p_meta_maintainer_email_stmt'
p121
S'/Users/david/src/projects/bento/bento-git/bento/core/parser/parser.py'
p122
I154
tp123
a(S'meta_license_stmt -> LICENSE_ID COLON anyword'
p124
S'meta_license_stmt'
p125
I3
S'p_meta_license_stmt'
p126
S'/Users/david/src/projects/bento/bento-git/bento/core/parser/parser.py'
p127
I159
tp128
a(S'meta_platforms_stmt -> PLATFORMS_ID COLON anyword'
p129
S'meta_platforms_stmt'
p130
I3
S'p_meta_platforms_stmt'
p131
S'/Users/david/src/projects/bento/bento-git/bento/core/parser/parser.py'
p132
I164
tp133
a(S'meta_version_stmt -> VERSION_ID COLON version'
p134
S'meta_version_stmt'
p135
I3
S'p_meta_version_stmt'
p136
S'/Users/david/src/projects/bento/bento-git/bento/core/parser/parser.py'
p137
I169
tp138
a(S'meta_config_py_stmt -> CONFIG_PY_ID COLON anyword'
p139
S'meta_config_py_stmt'
p140
I3
S'p_meta_config_py_stmt'
p141
S'/Users/david/src/projects/bento/bento-git/bento/core/parser/parser.py'
p142
I174
tp143
a(S'meta_classifiers_stmt -> CLASSIFIERS_ID COLON classifier'
p144
S'meta_classifiers_stmt'
p145
I3
S'p_meta_classifiers_stmt_single_line'
p146
S'/Users/david/src/projects/bento/bento-git/bento/core/parser/parser.py'
p147
I179
tp148
a(S'meta_classifiers_stmt -> CLASSIFIERS_ID COLON NEWLINE INDENT classifiers_list DEDENT'
p149
S'meta_classifiers_stmt'
p150
I6
S'p_meta_classifiers_stmt_indent'
p151
S'/Users/david/src/projects/bento/bento-git/bento/core/parser/parser.py'
p152
I183
tp153
a(S'meta_classifiers_stmt -> CLASSIFIERS_ID COLON classifier NEWLINE INDENT classifiers_list DEDENT'
p154
S'meta_classifiers_stmt'
p155
I7
S'p_meta_classifiers_stmt'
p156
S'/Users/david/src/projects/bento/bento-git/bento/core/parser/parser.py'
p157
I189
tp158
a(S'classifiers_list -> classifier NEWLINE classifiers_list'
p159
S'classifiers_list'
p160
I3
S'p_classifiers_list'
p161
S'/Users/david/src/projects/bento/bento-git/bento/core/parser/parser.py'
p162
I195
tp163
a(S'classifiers_list -> classifier'
p164
S'classifiers_list'
p165
I1
S'p_classifiers_list_term'
p166
S'/Users/david/src/projects/bento/bento-git/bento/core/parser/parser.py'
p167
I201
tp168
a(S'classifier -> literal_line'
p169
S'classifier'
p170
I1
S'p_classifier'
p171
S'/Users/david/src/projects/bento/bento-git/bento/core/parser/parser.py'
p172
I206
tp173
a(S'dummy -> AND BACKSLASH'
p174
S'dummy'
p175
I2
S'p_dummy'
p176
S'/Users/david/src/projects/bento/bento-git/bento/core/parser/parser.py'
p177
I212
tp178
a(S'meta_subento_stmt -> SUBENTO_ID COLON comma_list'
p179
S'meta_subento_stmt'
p180
I3
S'p_meta_subento_stmt'
p181
S'/Users/david/src/projects/bento/bento-git/bento/core/parser/parser.py'
p182
I216
tp183
a(S'meta_hook_file_stmt -> HOOK_FILE_ID COLON comma_list'
p184
S'meta_hook_file_stmt'
p185
I3
S'p_meta_hook_file_stmt'
p186
S'/Users/david/src/projects/bento/bento-git/bento/core/parser/parser.py'
p187
I220
tp188
a(S'extra_source_files -> EXTRA_SOURCE_FILES_ID COLON comma_list'
p189
S'extra_source_files'
p190
I3
S'p_extra_source_files'
p191
S'/Users/david/src/projects/bento/bento-git/bento/core/parser/parser.py'
p192
I228
tp193
a(S'data_files -> data_files_declaration INDENT data_files_stmts DEDENT'
p194
S'data_files'
p195
I4
S'p_data_files'
p196
S'/Users/david/src/projects/bento/bento-git/bento/core/parser/parser.py'
p197
I232
tp198
a(S'data_files_declaration -> DATAFILES_ID COLON word'
p199
S'data_files_declaration'
p200
I3
S'p_data_files_declaration'
p201
S'/Users/david/src/projects/bento/bento-git/bento/core/parser/parser.py'
p202
I238
tp203
a(S'data_files_stmts -> data_files_stmts data_files_stmt'
p204
S'data_files_stmts'
p205
I2
S'p_data_files_stmts'
p206
S'/Users/david/src/projects/bento/bento-git/bento/core/parser/parser.py'
p207
I242
tp208
a(S'data_files_stmts -> data_files_stmt'
p209
S'data_files_stmts'
p210
I1
S'p_data_files_stmts_term'
p211
S'/Users/david/src/projects/bento/bento-git/bento/core/parser/parser.py'
p212
I246
tp213
a(S'data_files_stmt -> data_files_target'
p214
S'data_files_stmt'
p215
I1
S'p_data_files_stmt'
p216
S'/Users/david/src/projects/bento/bento-git/bento/core/parser/parser.py'
p217
I250
tp218
a(S'data_files_stmt -> data_files_files'
p219
g215
I1
g216
g217
I251
tp220
a(S'data_files_stmt -> data_files_srcdir'
p221
g215
I1
g216
g217
I252
tp222
a(S'data_files_target -> TARGET_ID COLON anyword'
p223
S'data_files_target'
p224
I3
S'p_data_files_target'
p225
S'/Users/david/src/projects/bento/bento-git/bento/core/parser/parser.py'
p226
I257
tp227
a(S'data_files_srcdir -> SRCDIR_ID COLON anyword'
p228
S'data_files_srcdir'
p229
I3
S'p_data_files_srcdir'
p230
S'/Users/david/src/projects/bento/bento-git/bento/core/parser/parser.py'
p231
I261
tp232
a(S'data_files_files -> FILES_ID COLON comma_list'
p233
S'data_files_files'
p234
I3
S'p_data_files_files'
p235
S'/Users/david/src/projects/bento/bento-git/bento/core/parser/parser.py'
p236
I265
tp237
a(S'library -> library_declaration INDENT library_stmts DEDENT'
p238
S'library'
p239
I4
S'p_library'
p240
S'/Users/david/src/projects/bento/bento-git/bento/core/parser/parser.py'
p241
I272
tp242
a(S'library -> library_declaration'
p243
S'library'
p244
I1
S'p_library_decl_only'
p245
S'/Users/david/src/projects/bento/bento-git/bento/core/parser/parser.py'
p246
I278
tp247
a(S'library_declaration -> LIBRARY_ID COLON library_name'
p248
S'library_declaration'
p249
I3
S'p_library_declaration'
p250
S'/Users/david/src/projects/bento/bento-git/bento/core/parser/parser.py'
p251
I283
tp252
a(S'library_name -> word'
p253
S'library_name'
p254
I1
S'p_library_name'
p255
S'/Users/david/src/projects/bento/bento-git/bento/core/parser/parser.py'
p256
I287
tp257
a(S'library_name -> <empty>'
p258
g254
I0
g255
g256
I288
tp259
a(S'library_stmts -> library_stmts library_stmt'
p260
S'library_stmts'
p261
I2
S'p_library_stmts'
p262
S'/Users/david/src/projects/bento/bento-git/bento/core/parser/parser.py'
p263
I296
tp264
a(S'library_stmts -> library_stmt'
p265
S'library_stmts'
p266
I1
S'p_library_stmts_term'
p267
S'/Users/david/src/projects/bento/bento-git/bento/core/parser/parser.py'
p268
I303
tp269
a(S'library_stmt -> modules_stmt'
p270
S'library_stmt'
p271
I1
S'p_library_stmt'
p272
S'/Users/david/src/projects/bento/bento-git/bento/core/parser/parser.py'
p273
I308
tp274
a(S'library_stmt -> packages_stmt'
p275
g271
I1
g272
g273
I309
tp276
a(S'library_stmt -> extension_stmt'
p277
g271
I1
g272
g273
I310
tp278
a(S'library_stmt -> compiled_library_stmt'
p279
g271
I1
g272
g273
I311
tp280
a(S'library_stmt -> build_requires_stmt'
p281
g271
I1
g272
g273
I312
tp282
a(S'library_stmt -> install_requires_stmt'
p283
g271
I1
g272
g273
I313
tp284
a(S'library_stmt -> conditional_stmt'
p285
g271
I1
g272
g273
I314
tp286
a(S'packages_stmt -> PACKAGES_ID COLON comma_list'
p287
S'packages_stmt'
p288
I3
S'p_packages_stmt'
p289
S'/Users/david/src/projects/bento/bento-git/bento/core/parser/parser.py'
p290
I319
tp291
a(S'modules_stmt -> MODULES_ID COLON comma_list'
p292
S'modules_stmt'
p293
I3
S'p_modules_stmt'
p294
S'/Users/david/src/projects/bento/bento-git/bento/core/parser/parser.py'
p295
I323
tp296
a(S'build_requires_stmt -> BUILD_REQUIRES_ID COLON comma_list'
p297
S'build_requires_stmt'
p298
I3
S'p_build_requires_stmt'
p299
S'/Users/david/src/projects/bento/bento-git/bento/core/parser/parser.py'
p300
I327
tp301
a(S'install_requires_stmt -> INSTALL_REQUIRES_ID COLON comma_list'
p302
S'install_requires_stmt'
p303
I3
S'p_install_requires_stmt'
p304
S'/Users/david/src/projects/bento/bento-git/bento/core/parser/parser.py'
p305
I331
tp306
a(S'extension_stmt -> extension_decl INDENT extension_field_stmts DEDENT'
p307
S'extension_stmt'
p308
I4
S'p_extension_stmt_content'
p309
S'/Users/david/src/projects/bento/bento-git/bento/core/parser/parser.py'
p310
I335
tp311
a(S'extension_field_stmts -> extension_field_stmts extension_field_stmt'
p312
S'extension_field_stmts'
p313
I2
S'p_extension_field_stmts'
p314
S'/Users/david/src/projects/bento/bento-git/bento/core/parser/parser.py'
p315
I340
tp316
a(S'extension_field_stmts -> extension_field_stmt'
p317
S'extension_field_stmts'
p318
I1
S'p_extension_field_stmts_term'
p319
S'/Users/david/src/projects/bento/bento-git/bento/core/parser/parser.py'
p320
I346
tp321
a(S'extension_decl -> EXTENSION_ID COLON anyword'
p322
S'extension_decl'
p323
I3
S'p_extension_decl'
p324
S'/Users/david/src/projects/bento/bento-git/bento/core/parser/parser.py'
p325
I350
tp326
a(S'extension_field_stmt -> SOURCES_ID COLON comma_list'
p327
S'extension_field_stmt'
p328
I3
S'p_extension_sources'
p329
S'/Users/david/src/projects/bento/bento-git/bento/core/parser/parser.py'
p330
I354
tp331
a(S'extension_field_stmt -> INCLUDE_DIRS_ID COLON comma_list'
p332
S'extension_field_stmt'
p333
I3
S'p_extension_include_dirs'
p334
S'/Users/david/src/projects/bento/bento-git/bento/core/parser/parser.py'
p335
I358
tp336
a(S'compiled_library_stmt -> compiled_library_decl INDENT compiled_library_field_stmts DEDENT'
p337
S'compiled_library_stmt'
p338
I4
S'p_compiled_library_stmt_content'
p339
S'/Users/david/src/projects/bento/bento-git/bento/core/parser/parser.py'
p340
I362
tp341
a(S'compiled_library_field_stmts -> compiled_library_field_stmts compiled_library_field_stmt'
p342
S'compiled_library_field_stmts'
p343
I2
S'p_compiled_library_field_stmts'
p344
S'/Users/david/src/projects/bento/bento-git/bento/core/parser/parser.py'
p345
I367
tp346
a(S'compiled_library_field_stmts -> compiled_library_field_stmt'
p347
S'compiled_library_field_stmts'
p348
I1
S'p_compiled_library_field_stmts_term'
p349
S'/Users/david/src/projects/bento/bento-git/bento/core/parser/parser.py'
p350
I373
tp351
a(S'compiled_library_decl -> COMPILED_LIBRARY_ID COLON anyword'
p352
S'compiled_library_decl'
p353
I3
S'p_compiled_library_decl'
p354
S'/Users/david/src/projects/bento/bento-git/bento/core/parser/parser.py'
p355
I377
tp356
a(S'compiled_library_field_stmt -> SOURCES_ID COLON comma_list'
p357
S'compiled_library_field_stmt'
p358
I3
S'p_compiled_library_sources'
p359
S'/Users/david/src/projects/bento/bento-git/bento/core/parser/parser.py'
p360
I381
tp361
a(S'compiled_library_field_stmt -> INCLUDE_DIRS_ID COLON comma_list'
p362
S'compiled_library_field_stmt'
p363
I3
S'p_compiled_library_include_dirs'
p364
S'/Users/david/src/projects/bento/bento-git/bento/core/parser/parser.py'
p365
I385
tp366
a(S'conditional_stmt -> IF error'
p367
S'conditional_stmt'
p368
I2
S'p_conditional_if_error'
p369
S'/Users/david/src/projects/bento/bento-git/bento/core/parser/parser.py'
p370
I392
tp371
a(S'conditional_stmt -> IF test COLON INDENT library_stmts DEDENT'
p372
S'conditional_stmt'
p373
I6
S'p_conditional_if_only'
p374
S'/Users/david/src/projects/bento/bento-git/bento/core/parser/parser.py'
p375
I396
tp376
a(S'conditional_stmt -> IF test COLON INDENT library_stmts DEDENT ELSE COLON INDENT library_stmts DEDENT'
p377
S'conditional_stmt'
p378
I11
S'p_conditional_if_else'
p379
S'/Users/david/src/projects/bento/bento-git/bento/core/parser/parser.py'
p380
I400
tp381
a(S'test -> bool'
p382
S'test'
p383
I1
S'p_test'
p384
S'/Users/david/src/projects/bento/bento-git/bento/core/parser/parser.py'
p385
I406
tp386
a(S'test -> os_var'
p387
g383
I1
g384
g385
I407
tp388
a(S'test -> flag_var'
p389
g383
I1
g384
g385
I408
tp390
a(S'os_var -> OS_OP LPAR word RPAR'
p391
S'os_var'
p392
I4
S'p_os_var'
p393
S'/Users/david/src/projects/bento/bento-git/bento/core/parser/parser.py'
p394
I412
tp395
a(S'flag_var -> FLAG_OP LPAR word RPAR'
p396
S'flag_var'
p397
I4
S'p_flag_var'
p398
S'/Users/david/src/projects/bento/bento-git/bento/core/parser/parser.py'
p399
I416
tp400
a(S'flag_var -> NOT_OP FLAG_OP LPAR word RPAR'
p401
S'flag_var'
p402
I5
S'p_not_flag_var'
p403
S'/Users/david/src/projects/bento/bento-git/bento/core/parser/parser.py'
p404
I420
tp405
a(S'bool -> TRUE'
p406
S'bool'
p407
I1
S'p_cond_expr_true'
p408
S'/Users/david/src/projects/bento/bento-git/bento/core/parser/parser.py'
p409
I424
tp410
a(S'bool -> NOT_OP FALSE'
p411
S'bool'
p412
I2
S'p_cond_expr_true_not'
p413
S'/Users/david/src/projects/bento/bento-git/bento/core/parser/parser.py'
p414
I428
tp415
a(S'bool -> FALSE'
p416
S'bool'
p417
I1
S'p_cond_expr_false'
p418
S'/Users/david/src/projects/bento/bento-git/bento/core/parser/parser.py'
p419
I432
tp420
a(S'bool -> NOT_OP TRUE'
p421
S'bool'
p422
I2
S'p_cond_expr_false_not'
p423
S'/Users/david/src/projects/bento/bento-git/bento/core/parser/parser.py'
p424
I436
tp425
a(S'path -> path_declaration INDENT path_stmts DEDENT'
p426
S'path'
p427
I4
S'p_path'
p428
S'/Users/david/src/projects/bento/bento-git/bento/core/parser/parser.py'
p429
I443
tp430
a(S'path_declaration -> PATH_ID COLON anyword'
p431
S'path_declaration'
p432
I3
S'p_path_declaration'
p433
S'/Users/david/src/projects/bento/bento-git/bento/core/parser/parser.py'
p434
I447
tp435
a(S'path_stmts -> path_stmts path_stmt'
p436
S'path_stmts'
p437
I2
S'p_path_stmts'
p438
S'/Users/david/src/projects/bento/bento-git/bento/core/parser/parser.py'
p439
I451
tp440
a(S'path_stmts -> path_stmt'
p441
S'path_stmts'
p442
I1
S'p_path_stmts_term'
p443
S'/Users/david/src/projects/bento/bento-git/bento/core/parser/parser.py'
p444
I455
tp445
a(S'path_stmt -> path_description'
p446
S'path_stmt'
p447
I1
S'p_path_stmt'
p448
S'/Users/david/src/projects/bento/bento-git/bento/core/parser/parser.py'
p449
I459
tp450
a(S'path_stmt -> path_default'
p451
g447
I1
g448
g449
I460
tp452
a(S'path_description -> DESCRIPTION_ID COLON single_line_value'
p453
S'path_description'
p454
I3
S'p_path_description'
p455
S'/Users/david/src/projects/bento/bento-git/bento/core/parser/parser.py'
p456
I464
tp457
a(S'path_default -> DEFAULT_ID COLON anyword'
p458
S'path_default'
p459
I3
S'p_path_default'
p460
S'/Users/david/src/projects/bento/bento-git/bento/core/parser/parser.py'
p461
I469
tp462
a(S'flag -> flag_declaration INDENT flag_stmts DEDENT'
p463
S'flag'
p464
I4
S'p_flag'
p465
S'/Users/david/src/projects/bento/bento-git/bento/core/parser/parser.py'
p466
I476
tp467
a(S'flag_declaration -> FLAG_ID COLON anyword'
p468
S'flag_declaration'
p469
I3
S'p_flag_declaration'
p470
S'/Users/david/src/projects/bento/bento-git/bento/core/parser/parser.py'
p471
I480
tp472
a(S'flag_stmts -> flag_stmts flag_stmt'
p473
S'flag_stmts'
p474
I2
S'p_flag_stmts'
p475
S'/Users/david/src/projects/bento/bento-git/bento/core/parser/parser.py'
p476
I484
tp477
a(S'flag_stmts -> flag_stmt'
p478
S'flag_stmts'
p479
I1
S'p_flag_stmts_term'
p480
S'/Users/david/src/projects/bento/bento-git/bento/core/parser/parser.py'
p481
I488
tp482
a(S'flag_stmt -> flag_description'
p483
S'flag_stmt'
p484
I1
S'p_flag_stmt'
p485
S'/Users/david/src/projects/bento/bento-git/bento/core/parser/parser.py'
p486
I492
tp487
a(S'flag_stmt -> flag_default'
p488
g484
I1
g485
g486
I493
tp489
a(S'flag_description -> DESCRIPTION_ID COLON single_line_value'
p490
S'flag_description'
p491
I3
S'p_flag_description'
p492
S'/Users/david/src/projects/bento/bento-git/bento/core/parser/parser.py'
p493
I497
tp494
a(S'flag_default -> DEFAULT_ID COLON anyword'
p495
S'flag_default'
p496
I3
S'p_flag_default'
p497
S'/Users/david/src/projects/bento/bento-git/bento/core/parser/parser.py'
p498
I502
tp499
a(S'exec -> exec_decl INDENT exec_stmts DEDENT'
p500
S'exec'
p501
I4
S'p_executable'
p502
S'/Users/david/src/projects/bento/bento-git/bento/core/parser/parser.py'
p503
I509
tp504
a(S'exec_decl -> EXECUTABLE_ID COLON anyword'
p505
S'exec_decl'
p506
I3
S'p_exec_declaration'
p507
S'/Users/david/src/projects/bento/bento-git/bento/core/parser/parser.py'
p508
I513
tp509
a(S'exec_stmts -> exec_stmts exec_stmt'
p510
S'exec_stmts'
p511
I2
S'p_exec_stmts'
p512
S'/Users/david/src/projects/bento/bento-git/bento/core/parser/parser.py'
p513
I517
tp514
a(S'exec_stmts -> exec_stmt'
p515
S'exec_stmts'
p516
I1
S'p_exec_stmts_term'
p517
S'/Users/david/src/projects/bento/bento-git/bento/core/parser/parser.py'
p518
I521
tp519
a(S'exec_stmt -> function'
p520
S'exec_stmt'
p521
I1
S'p_exec_stmt'
p522
S'/Users/david/src/projects/bento/bento-git/bento/core/parser/parser.py'
p523
I525
tp524
a(S'exec_stmt -> module'
p525
g521
I1
g522
g523
I526
tp526
a(S'module -> MODULE_ID COLON anyword'
p527
S'module'
p528
I3
S'p_exec_module'
p529
S'/Users/david/src/projects/bento/bento-git/bento/core/parser/parser.py'
p530
I530
tp531
a(S'function -> FUNCTION_ID COLON anyword'
p532
S'function'
p533
I3
S'p_exec_function'
p534
S'/Users/david/src/projects/bento/bento-git/bento/core/parser/parser.py'
p535
I534
tp536
a(S'comma_list -> indented_comma_list'
p537
S'comma_list'
p538
I1
S'p_comma_list_indented'
p539
S'/Users/david/src/projects/bento/bento-git/bento/core/parser/parser.py'
p540
I542
tp541
a(S'comma_list -> comma_words'
p542
S'comma_list'
p543
I1
S'p_comma_list'
p544
S'/Users/david/src/projects/bento/bento-git/bento/core/parser/parser.py'
p545
I547
tp546
a(S'indented_comma_list -> comma_words COMMA INDENT comma_words DEDENT'
p547
S'indented_comma_list'
p548
I5
S'p_indented_comma_list'
p549
S'/Users/david/src/projects/bento/bento-git/bento/core/parser/parser.py'
p550
I552
tp551
a(S'indented_comma_list -> INDENT comma_words DEDENT'
p552
S'indented_comma_list'
p553
I3
S'p_indented_comma_list_term'
p554
S'/Users/david/src/projects/bento/bento-git/bento/core/parser/parser.py'
p555
I558
tp556
a(S'comma_words -> comma_words COMMA anyword_comma_list'
p557
S'comma_words'
p558
I3
S'p_comma_words'
p559
S'/Users/david/src/projects/bento/bento-git/bento/core/parser/parser.py'
p560
I563
tp561
a(S'comma_words -> anyword_comma_list'
p562
S'comma_words'
p563
I1
S'p_comma_words_term'
p564
S'/Users/david/src/projects/bento/bento-git/bento/core/parser/parser.py'
p565
I569
tp566
a(S'literal_line -> literal literal_line'
p567
S'literal_line'
p568
I2
S'p_literal_line'
p569
S'/Users/david/src/projects/bento/bento-git/bento/core/parser/parser.py'
p570
I576
tp571
a(S'literal_line -> literal'
p572
S'literal_line'
p573
I1
S'p_literal_line_term'
p574
S'/Users/david/src/projects/bento/bento-git/bento/core/parser/parser.py'
p575
I581
tp576
a(S'single_line_value -> WS single_line'
p577
S'single_line_value'
p578
I2
S'p_single_line'
p579
S'/Users/david/src/projects/bento/bento-git/bento/core/parser/parser.py'
p580
I585
tp581
a(S'single_line_value -> single_line'
p582
S'single_line_value'
p583
I1
S'p_single_line_no_space'
p584
S'/Users/david/src/projects/bento/bento-git/bento/core/parser/parser.py'
p585
I589
tp586
a(S'single_line -> single_line literal'
p587
S'single_line'
p588
I2
S'p_single_line_string'
p589
S'/Users/david/src/projects/bento/bento-git/bento/core/parser/parser.py'
p590
I593
tp591
a(S'single_line -> literal_no_space'
p592
S'single_line'
p593
I1
S'p_single_line_string_term'
p594
S'/Users/david/src/projects/bento/bento-git/bento/core/parser/parser.py'
p595
I597
tp596
a(S'meta_description_stmt -> description_decl single_line_newline INDENT multi_stmts DEDENT'
p597
S'meta_description_stmt'
p598
I5
S'p_meta_description_stmt_start_same_line'
p599
S'/Users/david/src/projects/bento/bento-git/bento/core/parser/parser.py'
p600
I601
tp601
a(S'meta_description_stmt -> description_decl NEWLINE INDENT multi_stmts DEDENT'
p602
S'meta_description_stmt'
p603
I5
S'p_meta_description_stmt_indented_block'
p604
S'/Users/david/src/projects/bento/bento-git/bento/core/parser/parser.py'
p605
I607
tp606
a(S'meta_description_stmt -> description_decl WS NEWLINE INDENT multi_stmts DEDENT'
p607
S'meta_description_stmt'
p608
I6
S'p_meta_description_stmt_indented_block2'
p609
S'/Users/david/src/projects/bento/bento-git/bento/core/parser/parser.py'
p610
I613
tp611
a(S'meta_description_stmt -> description_decl single_line_value'
p612
S'meta_description_stmt'
p613
I2
S'p_meta_description_stmt_single'
p614
S'/Users/david/src/projects/bento/bento-git/bento/core/parser/parser.py'
p615
I619
tp616
a(S'single_line_newline -> single_line_value newline'
p617
S'single_line_newline'
p618
I2
S'p_single_line_newline'
p619
S'/Users/david/src/projects/bento/bento-git/bento/core/parser/parser.py'
p620
I624
tp621
a(S'description_decl -> DESCRIPTION_ID COLON'
p622
S'description_decl'
p623
I2
S'p_description_decl'
p624
S'/Users/david/src/projects/bento/bento-git/bento/core/parser/parser.py'
p625
I629
tp626
a(S'indented_block -> indent indented_block_value'
p627
S'indented_block'
p628
I2
S'p_indented_block'
p629
S'/Users/david/src/projects/bento/bento-git/bento/core/parser/parser.py'
p630
I633
tp631
a(S'indented_block_value -> multi_stmts dedent'
p632
S'indented_block_value'
p633
I2
S'p_indented_block_value'
p634
S'/Users/david/src/projects/bento/bento-git/bento/core/parser/parser.py'
p635
I637
tp636
a(S'multi_stmts -> multi_stmt multi_stmts'
p637
S'multi_stmts'
p638
I2
S'p_multi_stmts'
p639
S'/Users/david/src/projects/bento/bento-git/bento/core/parser/parser.py'
p640
I641
tp641
a(S'multi_stmts -> multi_stmt'
p642
S'multi_stmts'
p643
I1
S'p_multi_stmts_term'
p644
S'/Users/david/src/projects/bento/bento-git/bento/core/parser/parser.py'
p645
I645
tp646
a(S'multi_stmt -> indented_block'
p647
S'multi_stmt'
p648
I1
S'p_multi_stmt_ind_block'
p649
S'/Users/david/src/projects/bento/bento-git/bento/core/parser/parser.py'
p650
I649
tp651
a(S'multi_stmt -> multi_literal'
p652
S'multi_stmt'
p653
I1
S'p_multi_stmt_term'
p654
S'/Users/david/src/projects/bento/bento-git/bento/core/parser/parser.py'
p655
I653
tp656
a(S'newline -> NEWLINE'
p657
S'newline'
p658
I1
S'p_newline'
p659
S'/Users/david/src/projects/bento/bento-git/bento/core/parser/parser.py'
p660
I657
tp661
a(S'anyword -> anyword literal'
p662
S'anyword'
p663
I2
S'p_anyword'
p664
S'/Users/david/src/projects/bento/bento-git/bento/core/parser/parser.py'
p665
I662
tp666
a(S'anyword -> literal'
p667
S'anyword'
p668
I1
S'p_anyword_term'
p669
S'/Users/david/src/projects/bento/bento-git/bento/core/parser/parser.py'
p670
I666
tp671
a(S'anyword_comma_list -> anyword_comma_list anytoken_no_comma'
p672
S'anyword_comma_list'
p673
I2
S'p_anyword_comma_list'
p674
S'/Users/david/src/projects/bento/bento-git/bento/core/parser/parser.py'
p675
I670
tp676
a(S'anyword_comma_list -> anytoken_no_comma'
p677
S'anyword_comma_list'
p678
I1
S'p_anyword_comma_list_term'
p679
S'/Users/david/src/projects/bento/bento-git/bento/core/parser/parser.py'
p680
I674
tp681
a(S'anytoken_no_comma -> WORD'
p682
S'anytoken_no_comma'
p683
I1
S'p_anytoken_no_comma'
p684
S'/Users/david/src/projects/bento/bento-git/bento/core/parser/parser.py'
p685
I679
tp686
a(S'anytoken_no_comma -> COLON'
p687
g683
I1
g684
g685
I680
tp688
a(S'anytoken_no_comma -> LPAR'
p689
g683
I1
g684
g685
I681
tp690
a(S'anytoken_no_comma -> RPAR'
p691
g683
I1
g684
g685
I682
tp692
a(S'anytoken_no_comma -> LESS'
p693
g683
I1
g684
g685
I683
tp694
a(S'anytoken_no_comma -> SLASH'
p695
g683
I1
g684
g685
I684
tp696
a(S'anytoken_no_comma -> SHARP'
p697
g683
I1
g684
g685
I685
tp698
a(S'anytoken_no_comma -> EQUAL'
p699
g683
I1
g684
g685
I686
tp700
a(S'anytoken_no_comma -> GREATER'
p701
g683
I1
g684
g685
I687
tp702
a(S'literal_no_space -> anytoken_no_comma'
p703
S'literal_no_space'
p704
I1
S'p_literal_no_space'
p705
S'/Users/david/src/projects/bento/bento-git/bento/core/parser/parser.py'
p706
I692
tp707
a(S'literal_no_space -> COMMA'
p708
S'literal_no_space'
p709
I1
S'p_literal_no_space_term'
p710
S'/Users/david/src/projects/bento/bento-git/bento/core/parser/parser.py'
p711
I697
tp712
a(S'literal -> literal_no_space'
p713
S'literal'
p714
I1
S'p_literal'
p715
S'/Users/david/src/projects/bento/bento-git/bento/core/parser/parser.py'
p716
I702
tp717
a(S'literal -> WS'
p718
S'literal'
p719
I1
S'p_literal_term'
p720
S'/Users/david/src/projects/bento/bento-git/bento/core/parser/parser.py'
p721
I707
tp722
a(S'multi_literal -> literal'
p723
S'multi_literal'
p724
I1
S'p_multi_literal'
p725
S'/Users/david/src/projects/bento/bento-git/bento/core/parser/parser.py'
p726
I712
tp727
a(S'multi_literal -> newline'
p728
S'multi_literal'
p729
I1
S'p_multi_literal2'
p730
S'/Users/david/src/projects/bento/bento-git/bento/core/parser/parser.py'
p731
I717
tp732
a(S'indent -> INDENT'
p733
S'indent'
p734
I1
S'p_indent'
p735
S'/Users/david/src/projects/bento/bento-git/bento/core/parser/parser.py'
p736
I722
tp737
a(S'dedent -> DEDENT'
p738
S'dedent'
p739
I1
S'p_dedent'
p740
S'/Users/david/src/projects/bento/bento-git/bento/core/parser/parser.py'
p741
I727
tp742
a(S'word -> WORD'
p743
S'word'
p744
I1
S'p_word'
p745
S'/Users/david/src/projects/bento/bento-git/bento/core/parser/parser.py'
p746
I732
tp747
a(S'version -> WORD'
p748
S'version'
p749
I1
S'p_version'
p750
S'/Users/david/src/projects/bento/bento-git/bento/core/parser/parser.py'
p751
I736
tp752
a.